	.file	"adtsenc.c"
	.text
Ltext0:
	.file 0 "D:/Soft/msys2/home/ffmpeg_x86/ffmpeg-lav" "libavformat/adtsenc.c"
	.p2align 4
	.def	_adts_write_trailer;	.scl	3;	.type	32;	.endef
_adts_write_trailer:
LVL0:
LFB760:
	.file 1 "libavformat/adtsenc.c"
	.loc 1 203 1 view -0
	.cfi_startproc
	.loc 1 204 5 view LVU1
	.loc 1 203 1 is_stmt 0 view LVU2
	subl	$28, %esp
	.cfi_def_cfa_offset 32
	.loc 1 203 1 view LVU3
	movl	32(%esp), %eax
LVL1:
	.loc 1 206 5 is_stmt 1 view LVU4
	.loc 1 206 13 is_stmt 0 view LVU5
	movl	12(%eax), %edx
	.loc 1 206 8 view LVU6
	movl	24(%edx), %edx
	testl	%edx, %edx
	jne	L5
	.loc 1 209 5 is_stmt 1 view LVU7
	.loc 1 210 1 is_stmt 0 view LVU8
	xorl	%eax, %eax
LVL2:
	.loc 1 210 1 view LVU9
	addl	$28, %esp
	.cfi_remember_state
	.cfi_def_cfa_offset 4
	ret
LVL3:
	.p2align 4,,10
	.p2align 3
L5:
	.cfi_restore_state
	.loc 1 207 9 is_stmt 1 view LVU10
	movl	%eax, (%esp)
LVL4:
	.loc 1 207 9 is_stmt 0 view LVU11
	call	_ff_ape_write_tag
LVL5:
	.loc 1 209 5 is_stmt 1 view LVU12
	.loc 1 210 1 is_stmt 0 view LVU13
	xorl	%eax, %eax
	addl	$28, %esp
	.cfi_def_cfa_offset 4
	ret
	.cfi_endproc
LFE760:
	.section .rdata,"dr"
LC0:
	.ascii "ID3\0"
	.text
	.p2align 4
	.def	_adts_write_header;	.scl	3;	.type	32;	.endef
_adts_write_header:
LVL6:
LFB757:
	.loc 1 114 1 is_stmt 1 view -0
	.cfi_startproc
	.loc 1 115 5 view LVU15
	.loc 1 114 1 is_stmt 0 view LVU16
	subl	$28, %esp
	.cfi_def_cfa_offset 32
	.loc 1 114 1 view LVU17
	movl	32(%esp), %eax
LVL7:
	.loc 1 117 5 is_stmt 1 view LVU18
	.loc 1 117 13 is_stmt 0 view LVU19
	movl	12(%eax), %edx
	.loc 1 117 8 view LVU20
	movl	28(%edx), %edx
	testl	%edx, %edx
	jne	L9
	.loc 1 120 5 is_stmt 1 view LVU21
	.loc 1 121 1 is_stmt 0 view LVU22
	xorl	%eax, %eax
LVL8:
	.loc 1 121 1 view LVU23
	addl	$28, %esp
	.cfi_remember_state
	.cfi_def_cfa_offset 4
	ret
LVL9:
	.p2align 4,,10
	.p2align 3
L9:
	.cfi_restore_state
LBB110:
LBI110:
	.loc 1 113 12 is_stmt 1 view LVU24
LBB111:
	.loc 1 118 9 view LVU25
	movl	$LC0, 8(%esp)
LVL10:
	.loc 1 118 9 is_stmt 0 view LVU26
	movl	$4, 4(%esp)
	movl	%eax, (%esp)
	call	_ff_id3v2_write_simple
LVL11:
	.loc 1 118 9 view LVU27
LBE111:
LBE110:
	.loc 1 120 5 is_stmt 1 view LVU28
	.loc 1 121 1 is_stmt 0 view LVU29
	xorl	%eax, %eax
	addl	$28, %esp
	.cfi_def_cfa_offset 4
	ret
	.cfi_endproc
LFE757:
	.section .rdata,"dr"
	.align 4
LC1:
	.ascii "MPEG-4 AOT %d is not allowed in ADTS\12\0"
	.align 4
LC2:
	.ascii "Escape sample rate index illegal in ADTS\12\0"
	.align 4
LC3:
	.ascii "960/120 MDCT window is not allowed in ADTS\12\0"
	.align 4
LC4:
	.ascii "Scalable configurations are not allowed in ADTS\12\0"
	.align 4
LC5:
	.ascii "Extension flag is not allowed in ADTS\12\0"
	.align 4
LC6:
	.ascii "Internal error, put_bits buffer too small\12\0"
LC7:
	.ascii "./libavcodec/put_bits.h\0"
LC8:
	.ascii "s->buf_ptr < s->buf_end\0"
LC9:
	.ascii "Assertion %s failed at %s:%d\12\0"
	.text
	.p2align 4
	.def	_adts_decode_extradata;	.scl	3;	.type	32;	.endef
_adts_decode_extradata:
LVL12:
LFB755:
	.loc 1 49 1 is_stmt 1 view -0
	.cfi_startproc
	.loc 1 50 5 view LVU31
	.loc 1 51 5 view LVU32
	.loc 1 52 5 view LVU33
	.loc 1 53 5 view LVU34
	.loc 1 55 5 view LVU35
	.loc 1 49 1 is_stmt 0 view LVU36
	pushl	%ebp
	.cfi_def_cfa_offset 8
	.cfi_offset 5, -8
	pushl	%edi
	.cfi_def_cfa_offset 12
	.cfi_offset 7, -12
	pushl	%esi
	.cfi_def_cfa_offset 16
	.cfi_offset 6, -16
	pushl	%ebx
	.cfi_def_cfa_offset 20
	.cfi_offset 3, -20
	movl	%eax, %ebx
	subl	$156, %esp
	.cfi_def_cfa_offset 176
	.loc 1 49 1 view LVU37
	movl	176(%esp), %eax
LVL13:
	.loc 1 49 1 view LVU38
	movl	%edx, 40(%esp)
	.loc 1 55 5 view LVU39
	leal	0(,%eax,8), %edx
LVL14:
LBB371:
LBI371:
	.file 2 "./libavcodec/get_bits.h"
	.loc 2 659 19 is_stmt 1 view LVU40
	.loc 2 665 5 view LVU41
LBB372:
LBI372:
	.loc 2 622 19 view LVU42
LBB373:
	.loc 2 625 5 view LVU43
	.loc 2 626 5 view LVU44
	.loc 2 628 5 view LVU45
	.loc 2 628 8 is_stmt 0 view LVU46
	cmpl	$2147483134, %edx
	ja	L51
	testl	%ecx, %ecx
	je	L51
	.loc 2 638 38 view LVU47
	movl	%ecx, 36(%esp)
	leal	8(%edx), %edi
L11:
LVL15:
	.loc 2 634 5 is_stmt 1 view LVU48
	.loc 2 636 5 view LVU49
	.loc 2 637 5 view LVU50
	.loc 2 638 5 view LVU51
	.loc 2 639 5 view LVU52
	.loc 2 640 5 view LVU53
	.loc 2 648 5 view LVU54
	.loc 2 648 5 is_stmt 0 view LVU55
LBE373:
LBE372:
LBE371:
	.loc 1 56 5 is_stmt 1 view LVU56
	.loc 1 56 11 is_stmt 0 view LVU57
	movl	%eax, 8(%esp)
	leal	92(%esp), %eax
	movl	%ebx, 16(%esp)
	movl	$1, 12(%esp)
	movl	%ecx, 4(%esp)
	movl	%eax, (%esp)
	call	_avpriv_mpeg4audio_get_config2
LVL16:
	.loc 1 57 5 is_stmt 1 view LVU58
	.loc 1 57 8 is_stmt 0 view LVU59
	testl	%eax, %eax
	js	L10
	.loc 1 59 5 is_stmt 1 view LVU60
LVL17:
LBB376:
LBI376:
	.loc 2 291 20 view LVU61
	.loc 2 299 5 view LVU62
LBB377:
LBI377:
	.file 3 "./libavutil/common.h"
	.loc 3 127 38 view LVU63
LBB378:
	.loc 3 132 5 view LVU64
	.loc 3 133 10 view LVU65
LBE378:
LBE377:
LBE376:
	.loc 1 60 35 is_stmt 0 view LVU66
	movl	92(%esp), %esi
	.loc 1 60 29 view LVU67
	movl	40(%esp), %ebp
LBB383:
LBB381:
LBB379:
	.loc 3 133 13 view LVU68
	cmpl	%edi, %eax
LBE379:
LBE381:
LBE383:
	.loc 1 61 35 view LVU69
	movl	96(%esp), %ecx
LBB384:
LBB382:
LBB380:
	.loc 3 133 13 view LVU70
	cmovg	%edi, %eax
LVL18:
	.loc 3 133 13 view LVU71
LBE380:
LBE382:
LBE384:
	.loc 1 60 5 is_stmt 1 view LVU72
	.loc 1 60 48 is_stmt 0 view LVU73
	leal	-1(%esi), %edx
	.loc 1 60 35 view LVU74
	movl	%esi, 44(%esp)
	.loc 1 62 35 view LVU75
	movl	104(%esp), %esi
	.loc 1 60 29 view LVU76
	movl	%edx, 8(%ebp)
	.loc 1 61 5 is_stmt 1 view LVU77
	.loc 1 61 29 is_stmt 0 view LVU78
	movl	%ecx, 12(%ebp)
	.loc 1 62 5 is_stmt 1 view LVU79
	.loc 1 62 29 is_stmt 0 view LVU80
	movl	%esi, 16(%ebp)
	.loc 1 64 5 is_stmt 1 view LVU81
	.loc 1 64 8 is_stmt 0 view LVU82
	cmpl	$3, %edx
	ja	L60
	.loc 1 68 5 is_stmt 1 view LVU83
	.loc 1 68 8 is_stmt 0 view LVU84
	cmpl	$15, %ecx
	je	L61
	.loc 1 72 5 is_stmt 1 view LVU85
LVL19:
LBB385:
LBI385:
	.loc 2 379 28 view LVU86
LBB386:
	.loc 2 381 5 view LVU87
	.loc 2 401 5 view LVU88
	.loc 2 401 5 view LVU89
	.loc 2 401 5 view LVU90
	.loc 2 402 5 view LVU91
	.loc 2 403 5 view LVU92
	movl	36(%esp), %ecx
	movl	%eax, %edx
	shrl	$3, %edx
	movl	(%ecx,%edx), %edx
	.loc 2 403 5 is_stmt 0 discriminator 1 view LVU93
	movl	%eax, %ecx
	.loc 2 405 5 view LVU94
	addl	$1, %eax
LVL20:
	.loc 2 403 5 discriminator 1 view LVU95
	andl	$7, %ecx
LVL21:
	.loc 2 403 5 discriminator 1 view LVU96
	bswap	%edx
	.loc 2 404 5 is_stmt 1 view LVU97
LVL22:
LBB387:
LBI387:
	.file 4 "./libavcodec/x86/mathops.h"
	.loc 4 124 24 view LVU98
LBB388:
	.loc 4 125 5 view LVU99
LBE388:
LBE387:
	.loc 2 403 5 is_stmt 0 discriminator 1 view LVU100
	sall	%cl, %edx
LBB390:
LBB389:
	.loc 4 125 5 view LVU101
/APP
 # 125 "./libavcodec/x86/mathops.h" 1
	shrl $-1, %edx
	
 # 0 "" 2
LVL23:
	.loc 4 129 5 is_stmt 1 view LVU102
	.loc 4 129 5 is_stmt 0 view LVU103
/NO_APP
LBE389:
LBE390:
	.loc 2 405 5 is_stmt 1 view LVU104
	cmpl	%eax, %edi
	cmovbe	%edi, %eax
LVL24:
	.loc 2 406 5 view LVU105
	.loc 2 408 5 view LVU106
	.loc 2 409 5 view LVU107
	.loc 2 409 5 is_stmt 0 view LVU108
LBE386:
LBE385:
	.loc 1 72 8 discriminator 1 view LVU109
	testl	%edx, %edx
	jne	L62
	.loc 1 76 5 is_stmt 1 view LVU110
LVL25:
LBB391:
LBI391:
	.loc 2 379 28 view LVU111
LBB392:
	.loc 2 381 5 view LVU112
	.loc 2 401 5 view LVU113
	.loc 2 401 5 view LVU114
	.loc 2 401 5 view LVU115
	.loc 2 402 5 view LVU116
	.loc 2 403 5 view LVU117
	movl	36(%esp), %ecx
	movl	%eax, %edx
LVL26:
	.loc 2 403 5 is_stmt 0 view LVU118
	shrl	$3, %edx
	movl	(%ecx,%edx), %edx
	.loc 2 403 5 discriminator 1 view LVU119
	movl	%eax, %ecx
	.loc 2 405 5 view LVU120
	addl	$1, %eax
LVL27:
	.loc 2 403 5 discriminator 1 view LVU121
	andl	$7, %ecx
LVL28:
	.loc 2 403 5 discriminator 1 view LVU122
	bswap	%edx
	.loc 2 404 5 is_stmt 1 view LVU123
LVL29:
LBB393:
LBI393:
	.loc 4 124 24 view LVU124
LBB394:
	.loc 4 125 5 view LVU125
LBE394:
LBE393:
	.loc 2 403 5 is_stmt 0 discriminator 1 view LVU126
	sall	%cl, %edx
LBB396:
LBB395:
	.loc 4 125 5 view LVU127
/APP
 # 125 "./libavcodec/x86/mathops.h" 1
	shrl $-1, %edx
	
 # 0 "" 2
LVL30:
	.loc 4 129 5 is_stmt 1 view LVU128
	.loc 4 129 5 is_stmt 0 view LVU129
/NO_APP
LBE395:
LBE396:
	.loc 2 405 5 is_stmt 1 view LVU130
	cmpl	%edi, %eax
	cmova	%edi, %eax
LVL31:
	.loc 2 406 5 view LVU131
	.loc 2 408 5 view LVU132
	.loc 2 409 5 view LVU133
	.loc 2 409 5 is_stmt 0 view LVU134
LBE392:
LBE391:
	.loc 1 76 8 discriminator 1 view LVU135
	testl	%edx, %edx
	jne	L63
	.loc 1 80 5 is_stmt 1 view LVU136
LVL32:
LBB397:
LBI397:
	.loc 2 379 28 view LVU137
LBB398:
	.loc 2 381 5 view LVU138
	.loc 2 401 5 view LVU139
	.loc 2 401 5 view LVU140
	.loc 2 401 5 view LVU141
	.loc 2 402 5 view LVU142
	.loc 2 403 5 view LVU143
	movl	36(%esp), %ecx
	movl	%eax, %edx
LVL33:
	.loc 2 403 5 is_stmt 0 view LVU144
	shrl	$3, %edx
	movl	(%ecx,%edx), %edx
	.loc 2 403 5 discriminator 1 view LVU145
	movl	%eax, %ecx
	andl	$7, %ecx
	bswap	%edx
LVL34:
	.loc 2 404 5 is_stmt 1 view LVU146
LBB399:
LBI399:
	.loc 4 124 24 view LVU147
LBB400:
	.loc 4 125 5 view LVU148
LBE400:
LBE399:
	.loc 2 403 5 is_stmt 0 discriminator 1 view LVU149
	sall	%cl, %edx
LVL35:
LBB402:
LBB401:
	.loc 4 125 5 view LVU150
/APP
 # 125 "./libavcodec/x86/mathops.h" 1
	shrl $-1, %edx
	
 # 0 "" 2
LVL36:
	.loc 4 129 5 is_stmt 1 view LVU151
	.loc 4 129 5 is_stmt 0 view LVU152
/NO_APP
LBE401:
LBE402:
	.loc 2 405 5 is_stmt 1 view LVU153
	.loc 2 406 5 view LVU154
	.loc 2 408 5 view LVU155
	.loc 2 409 5 view LVU156
	.loc 2 409 5 is_stmt 0 view LVU157
LBE398:
LBE397:
	.loc 1 80 8 discriminator 1 view LVU158
	testl	%edx, %edx
	jne	L64
	.loc 1 84 5 is_stmt 1 view LVU159
	.loc 1 84 8 is_stmt 0 view LVU160
	testl	%esi, %esi
	je	L65
LVL37:
L19:
	.loc 1 92 5 is_stmt 1 view LVU161
	.loc 1 92 22 is_stmt 0 view LVU162
	movl	40(%esp), %eax
	movl	$1, 4(%eax)
	.loc 1 94 5 is_stmt 1 view LVU163
	.loc 1 94 12 is_stmt 0 view LVU164
	xorl	%eax, %eax
LVL38:
L10:
	.loc 1 95 1 view LVU165
	addl	$156, %esp
	.cfi_remember_state
	.cfi_def_cfa_offset 20
	popl	%ebx
	.cfi_restore 3
	.cfi_def_cfa_offset 16
	popl	%esi
	.cfi_restore 6
	.cfi_def_cfa_offset 12
	popl	%edi
	.cfi_restore 7
	.cfi_def_cfa_offset 8
	popl	%ebp
	.cfi_restore 5
	.cfi_def_cfa_offset 4
	ret
LVL39:
	.p2align 4,,10
	.p2align 3
L65:
	.cfi_restore_state
LBB406:
LBB403:
	.loc 2 405 5 view LVU166
	addl	$1, %eax
LBE403:
LBE406:
	.loc 1 85 32 view LVU167
	leal	32(%ebp), %edx
LVL40:
	.loc 1 85 32 view LVU168
	movl	36(%esp), %esi
LBB407:
LBB408:
	.file 5 "./libavcodec/put_bits.h"
	.loc 5 56 21 view LVU169
	movl	$2560, 88(%esp)
LBE408:
LBE407:
LBB411:
LBB404:
	.loc 2 405 5 view LVU170
	cmpl	%edi, %eax
LBE404:
LBE411:
	.loc 1 85 32 view LVU171
	movl	%edx, 76(%esp)
LBB412:
LBB409:
	.loc 5 58 30 view LVU172
	leal	352(%ebp), %edx
LBE409:
LBE412:
LBB413:
LBB405:
	.loc 2 405 5 view LVU173
	cmova	%edi, %eax
LBE405:
LBE413:
	.loc 1 85 9 is_stmt 1 view LVU174
LVL41:
LBB414:
LBI407:
	.loc 5 48 20 view LVU175
LBB410:
	.loc 5 51 5 view LVU176
	.loc 5 56 5 view LVU177
	.loc 5 57 5 view LVU178
	.loc 5 58 5 view LVU179
	.loc 5 58 30 is_stmt 0 view LVU180
	movl	%edx, 84(%esp)
	.loc 5 59 5 is_stmt 1 view LVU181
	.loc 5 60 5 view LVU182
	.loc 5 61 5 view LVU183
LVL42:
	.loc 5 61 5 is_stmt 0 view LVU184
LBE410:
LBE414:
	.loc 1 87 9 is_stmt 1 view LVU185
	.loc 1 88 9 view LVU186
LBB415:
LBI415:
	.file 6 "./libavcodec/mpeg4audio.h"
	.loc 6 147 19 view LVU187
LBB416:
	.loc 6 149 5 view LVU188
	.loc 6 150 5 view LVU189
	.loc 6 152 5 view LVU190
LBB417:
LBI417:
	.loc 6 138 38 view LVU191
LBB418:
	.loc 6 142 5 view LVU192
LBB419:
LBI419:
	.loc 2 379 28 view LVU193
LBB420:
	.loc 2 381 5 view LVU194
	.loc 2 401 5 view LVU195
	.loc 2 401 5 view LVU196
	.loc 2 401 5 view LVU197
	.loc 2 402 5 view LVU198
	.loc 2 403 5 view LVU199
LBE420:
LBE419:
LBE418:
LBE417:
LBB430:
LBB431:
LBB432:
LBB433:
	.loc 5 209 17 is_stmt 0 view LVU200
	movl	$29, 72(%esp)
LBE433:
LBE432:
LBE431:
LBE430:
LBB456:
LBB429:
LBB428:
LBB427:
	.loc 2 403 5 view LVU201
	movl	%eax, %edx
	.loc 2 403 5 discriminator 1 view LVU202
	movl	%eax, %ebp
	.loc 2 405 5 view LVU203
	addl	$10, %eax
	.loc 2 403 5 view LVU204
	shrl	$3, %edx
	.loc 2 403 5 discriminator 1 view LVU205
	andl	$7, %ebp
	movl	(%esi,%edx), %edx
	movl	%ebp, %ecx
	bswap	%edx
	.loc 2 404 5 is_stmt 1 view LVU206
LVL43:
LBB421:
LBI421:
	.loc 4 124 24 view LVU207
LBB422:
	.loc 4 125 5 view LVU208
	.loc 4 129 5 view LVU209
	.loc 4 129 5 is_stmt 0 view LVU210
LBE422:
LBE421:
	.loc 2 405 5 is_stmt 1 view LVU211
	.loc 2 403 5 is_stmt 0 discriminator 1 view LVU212
	sall	%cl, %edx
LBB425:
LBB423:
	.loc 4 125 5 view LVU213
/APP
 # 125 "./libavcodec/x86/mathops.h" 1
	shrl $-10, %edx
	
 # 0 "" 2
/NO_APP
LBE423:
LBE425:
	.loc 2 405 5 view LVU214
	cmpl	%edi, %eax
LBB426:
LBB424:
	.loc 4 125 5 view LVU215
	movl	%edx, 60(%esp)
LVL44:
	.loc 4 125 5 view LVU216
LBE424:
LBE426:
	.loc 2 405 5 view LVU217
	cmova	%edi, %eax
LVL45:
	.loc 2 406 5 is_stmt 1 view LVU218
	.loc 2 408 5 view LVU219
	.loc 2 409 5 view LVU220
	.loc 2 409 5 is_stmt 0 view LVU221
LBE427:
LBE428:
	.loc 6 143 5 is_stmt 1 view LVU222
	.loc 6 144 5 view LVU223
	.loc 6 144 5 is_stmt 0 view LVU224
LBE429:
LBE456:
	.loc 6 153 5 is_stmt 1 view LVU225
LBB457:
LBI457:
	.loc 6 138 38 view LVU226
LBB458:
	.loc 6 142 5 view LVU227
LBB459:
LBI459:
	.loc 2 379 28 view LVU228
LBB460:
	.loc 2 381 5 view LVU229
	.loc 2 401 5 view LVU230
	.loc 2 401 5 view LVU231
	.loc 2 401 5 view LVU232
	.loc 2 402 5 view LVU233
	.loc 2 403 5 view LVU234
	movl	%eax, %edx
	.loc 2 403 5 is_stmt 0 discriminator 1 view LVU235
	movl	%eax, %ebp
	.loc 2 405 5 view LVU236
	addl	$4, %eax
LVL46:
	.loc 2 403 5 view LVU237
	shrl	$3, %edx
LVL47:
	.loc 2 403 5 discriminator 1 view LVU238
	andl	$7, %ebp
LVL48:
	.loc 2 403 5 discriminator 1 view LVU239
	movl	(%esi,%edx), %edx
	movl	%ebp, %ecx
	bswap	%edx
	.loc 2 404 5 is_stmt 1 view LVU240
LVL49:
LBB461:
LBI461:
	.loc 4 124 24 view LVU241
LBB462:
	.loc 4 125 5 view LVU242
	.loc 4 129 5 view LVU243
	.loc 4 129 5 is_stmt 0 view LVU244
LBE462:
LBE461:
	.loc 2 405 5 is_stmt 1 view LVU245
	.loc 2 403 5 is_stmt 0 discriminator 1 view LVU246
	sall	%cl, %edx
LBB465:
LBB463:
	.loc 4 125 5 view LVU247
	movl	%edx, %ebp
/APP
 # 125 "./libavcodec/x86/mathops.h" 1
	shrl $-4, %ebp
	
 # 0 "" 2
/NO_APP
LBE463:
LBE465:
	.loc 2 405 5 view LVU248
	cmpl	%edi, %eax
LBB466:
LBB464:
	.loc 4 125 5 view LVU249
	movl	%ebp, 44(%esp)
LVL50:
	.loc 4 125 5 view LVU250
LBE464:
LBE466:
	.loc 2 405 5 view LVU251
	cmova	%edi, %eax
LVL51:
	.loc 2 406 5 is_stmt 1 view LVU252
	.loc 2 408 5 view LVU253
	.loc 2 409 5 view LVU254
	.loc 2 409 5 is_stmt 0 view LVU255
LBE460:
LBE459:
	.loc 6 143 5 is_stmt 1 view LVU256
	.loc 6 144 5 view LVU257
	.loc 6 144 5 is_stmt 0 view LVU258
LBE458:
LBE457:
	.loc 6 154 5 is_stmt 1 view LVU259
LBB467:
LBI467:
	.loc 6 138 38 view LVU260
LBB468:
	.loc 6 142 5 view LVU261
LBB469:
LBI469:
	.loc 2 379 28 view LVU262
LBB470:
	.loc 2 381 5 view LVU263
	.loc 2 401 5 view LVU264
	.loc 2 401 5 view LVU265
	.loc 2 401 5 view LVU266
	.loc 2 402 5 view LVU267
	.loc 2 403 5 view LVU268
	movl	%eax, %edx
	.loc 2 403 5 is_stmt 0 discriminator 1 view LVU269
	movl	%eax, %ecx
	.loc 2 405 5 view LVU270
	addl	$4, %eax
LVL52:
	.loc 2 403 5 view LVU271
	shrl	$3, %edx
LVL53:
	.loc 2 403 5 discriminator 1 view LVU272
	andl	$7, %ecx
LVL54:
	.loc 2 403 5 discriminator 1 view LVU273
	movl	(%esi,%edx), %edx
	bswap	%edx
	.loc 2 404 5 is_stmt 1 view LVU274
LVL55:
LBB471:
LBI471:
	.loc 4 124 24 view LVU275
LBB472:
	.loc 4 125 5 view LVU276
	.loc 4 129 5 view LVU277
	.loc 4 129 5 is_stmt 0 view LVU278
LBE472:
LBE471:
	.loc 2 405 5 is_stmt 1 view LVU279
	.loc 2 403 5 is_stmt 0 discriminator 1 view LVU280
	sall	%cl, %edx
LBB475:
LBB473:
	.loc 4 125 5 view LVU281
	movl	%edx, %ebp
LVL56:
	.loc 4 125 5 view LVU282
/APP
 # 125 "./libavcodec/x86/mathops.h" 1
	shrl $-4, %ebp
	
 # 0 "" 2
/NO_APP
LBE473:
LBE475:
	.loc 2 405 5 view LVU283
	cmpl	%edi, %eax
LBB476:
LBB474:
	.loc 4 125 5 view LVU284
	movl	%ebp, 48(%esp)
LVL57:
	.loc 4 125 5 view LVU285
LBE474:
LBE476:
	.loc 2 405 5 view LVU286
	cmova	%edi, %eax
LVL58:
	.loc 2 406 5 is_stmt 1 view LVU287
	.loc 2 408 5 view LVU288
	.loc 2 409 5 view LVU289
	.loc 2 409 5 is_stmt 0 view LVU290
LBE470:
LBE469:
	.loc 6 143 5 is_stmt 1 view LVU291
LBB477:
LBI477:
	.loc 5 164 20 view LVU292
LBB478:
	.loc 5 166 5 view LVU293
	.loc 5 167 5 view LVU294
	.loc 5 169 5 view LVU295
	.loc 5 171 5 view LVU296
	.loc 5 172 5 view LVU297
	.loc 5 190 5 view LVU298
	.loc 5 191 9 view LVU299
	.loc 5 192 9 view LVU300
	.loc 5 208 5 view LVU301
	.loc 5 209 5 view LVU302
	.loc 5 209 5 is_stmt 0 view LVU303
LBE478:
LBE477:
	.loc 6 144 5 is_stmt 1 view LVU304
	.loc 6 144 5 is_stmt 0 view LVU305
LBE468:
LBE467:
	.loc 6 155 5 is_stmt 1 view LVU306
LBB488:
LBI488:
	.loc 6 138 38 view LVU307
LBB489:
	.loc 6 142 5 view LVU308
LBB490:
LBI490:
	.loc 2 379 28 view LVU309
LBB491:
	.loc 2 381 5 view LVU310
	.loc 2 401 5 view LVU311
	.loc 2 401 5 view LVU312
	.loc 2 401 5 view LVU313
	.loc 2 402 5 view LVU314
	.loc 2 403 5 view LVU315
	movl	%eax, %edx
	shrl	$3, %edx
	movl	(%esi,%edx), %ebx
LVL59:
	.loc 2 403 5 is_stmt 0 discriminator 1 view LVU316
	movl	%eax, %edx
	.loc 2 405 5 view LVU317
	addl	$4, %eax
LVL60:
	.loc 2 403 5 discriminator 1 view LVU318
	andl	$7, %edx
LVL61:
	.loc 2 403 5 discriminator 1 view LVU319
	movl	%edx, %ecx
	bswap	%ebx
	.loc 2 404 5 is_stmt 1 view LVU320
LVL62:
LBB492:
LBI492:
	.loc 4 124 24 view LVU321
LBB493:
	.loc 4 125 5 view LVU322
LBE493:
LBE492:
	.loc 2 403 5 is_stmt 0 discriminator 1 view LVU323
	sall	%cl, %ebx
LBB495:
LBB494:
	.loc 4 125 5 view LVU324
/APP
 # 125 "./libavcodec/x86/mathops.h" 1
	shrl $-4, %ebx
	
 # 0 "" 2
LVL63:
	.loc 4 129 5 is_stmt 1 view LVU325
	.loc 4 129 5 is_stmt 0 view LVU326
/NO_APP
LBE494:
LBE495:
	.loc 2 405 5 is_stmt 1 view LVU327
	cmpl	%edi, %eax
	cmova	%edi, %eax
LVL64:
	.loc 2 406 5 view LVU328
	.loc 2 408 5 view LVU329
	.loc 2 409 5 view LVU330
	.loc 2 409 5 is_stmt 0 view LVU331
LBE491:
LBE490:
	.loc 6 143 5 is_stmt 1 view LVU332
LBB496:
LBI496:
	.loc 5 164 20 view LVU333
LBB497:
	.loc 5 166 5 view LVU334
	.loc 5 167 5 view LVU335
	.loc 5 169 5 view LVU336
	.loc 5 171 5 view LVU337
	.loc 5 172 5 view LVU338
	.loc 5 190 5 view LVU339
	.loc 5 191 9 view LVU340
	.loc 5 192 9 view LVU341
	.loc 5 208 5 view LVU342
	.loc 5 209 5 view LVU343
	.loc 5 209 5 is_stmt 0 view LVU344
LBE497:
LBE496:
	.loc 6 144 5 is_stmt 1 view LVU345
	.loc 6 144 5 is_stmt 0 view LVU346
LBE489:
LBE488:
	.loc 6 156 5 is_stmt 1 view LVU347
LBB501:
LBI501:
	.loc 6 138 38 view LVU348
LBB502:
	.loc 6 142 5 view LVU349
LBB503:
LBI503:
	.loc 2 379 28 view LVU350
LBB504:
	.loc 2 381 5 view LVU351
	.loc 2 401 5 view LVU352
	.loc 2 401 5 view LVU353
	.loc 2 401 5 view LVU354
	.loc 2 402 5 view LVU355
	.loc 2 403 5 view LVU356
	movl	%eax, %edx
	.loc 2 403 5 is_stmt 0 discriminator 1 view LVU357
	movl	%eax, %ecx
	.loc 2 405 5 view LVU358
	addl	$2, %eax
LVL65:
	.loc 2 403 5 view LVU359
	shrl	$3, %edx
LVL66:
	.loc 2 403 5 discriminator 1 view LVU360
	andl	$7, %ecx
LVL67:
	.loc 2 403 5 discriminator 1 view LVU361
	movl	(%esi,%edx), %edx
	bswap	%edx
	.loc 2 404 5 is_stmt 1 view LVU362
LVL68:
LBB505:
LBI505:
	.loc 4 124 24 view LVU363
LBB506:
	.loc 4 125 5 view LVU364
LBE506:
LBE505:
	.loc 2 403 5 is_stmt 0 discriminator 1 view LVU365
	sall	%cl, %edx
LBB508:
LBB507:
	.loc 4 125 5 view LVU366
	movl	%edx, %ebp
LVL69:
	.loc 4 125 5 view LVU367
/APP
 # 125 "./libavcodec/x86/mathops.h" 1
	shrl $-2, %ebp
	
 # 0 "" 2
LVL70:
	.loc 4 129 5 is_stmt 1 view LVU368
	.loc 4 129 5 is_stmt 0 view LVU369
/NO_APP
LBE507:
LBE508:
	.loc 2 405 5 is_stmt 1 view LVU370
	cmpl	%edi, %eax
LBE504:
LBE503:
LBE502:
LBE501:
	.loc 6 157 17 is_stmt 0 discriminator 1 view LVU371
	movl	%ebp, 52(%esp)
LBB520:
LBB517:
LBB510:
LBB509:
	.loc 2 405 5 view LVU372
	cmova	%edi, %eax
LVL71:
	.loc 2 406 5 is_stmt 1 view LVU373
	.loc 2 408 5 view LVU374
	.loc 2 409 5 view LVU375
	.loc 2 409 5 is_stmt 0 view LVU376
LBE509:
LBE510:
	.loc 6 143 5 is_stmt 1 view LVU377
LBB511:
LBI511:
	.loc 5 164 20 view LVU378
LBB512:
	.loc 5 166 5 view LVU379
	.loc 5 167 5 view LVU380
	.loc 5 169 5 view LVU381
	.loc 5 171 5 view LVU382
	.loc 5 172 5 view LVU383
	.loc 5 190 5 view LVU384
	.loc 5 191 9 view LVU385
	.loc 5 192 9 view LVU386
	.loc 5 208 5 view LVU387
	.loc 5 209 5 view LVU388
	.loc 5 209 5 is_stmt 0 view LVU389
LBE512:
LBE511:
	.loc 6 144 5 is_stmt 1 view LVU390
	.loc 6 144 5 is_stmt 0 view LVU391
LBE517:
LBE520:
	.loc 6 157 5 is_stmt 1 view LVU392
LBB521:
LBI521:
	.loc 6 138 38 view LVU393
LBB522:
	.loc 6 142 5 view LVU394
LBB523:
LBI523:
	.loc 2 379 28 view LVU395
LBB524:
	.loc 2 381 5 view LVU396
	.loc 2 401 5 view LVU397
	.loc 2 401 5 view LVU398
	.loc 2 401 5 view LVU399
	.loc 2 402 5 view LVU400
	.loc 2 403 5 view LVU401
	movl	%eax, %edx
	shrl	$3, %edx
	movl	(%esi,%edx), %esi
	.loc 2 403 5 is_stmt 0 discriminator 1 view LVU402
	movl	%eax, %edx
	.loc 2 405 5 view LVU403
	addl	$3, %eax
LVL72:
	.loc 2 403 5 discriminator 1 view LVU404
	andl	$7, %edx
LVL73:
	.loc 2 403 5 discriminator 1 view LVU405
	movl	%edx, %ecx
	bswap	%esi
	.loc 2 404 5 is_stmt 1 view LVU406
LVL74:
LBB525:
LBI525:
	.loc 4 124 24 view LVU407
LBB526:
	.loc 4 125 5 view LVU408
LBE526:
LBE525:
LBE524:
LBE523:
LBE522:
LBE521:
	.loc 6 157 17 is_stmt 0 discriminator 1 view LVU409
	movl	%ebp, %edx
LBB537:
LBB485:
LBB482:
LBB479:
	.loc 5 191 32 view LVU410
	movl	44(%esp), %ebp
LVL75:
	.loc 5 191 32 view LVU411
LBE479:
LBE482:
LBE485:
LBE537:
LBB538:
LBB535:
LBB530:
LBB529:
	.loc 2 403 5 discriminator 1 view LVU412
	sall	%cl, %esi
	movl	36(%esp), %ecx
LBB528:
LBB527:
	.loc 4 125 5 view LVU413
/APP
 # 125 "./libavcodec/x86/mathops.h" 1
	shrl $-3, %esi
	
 # 0 "" 2
LVL76:
	.loc 4 129 5 is_stmt 1 view LVU414
	.loc 4 129 5 is_stmt 0 view LVU415
/NO_APP
LBE527:
LBE528:
	.loc 2 405 5 is_stmt 1 view LVU416
	cmpl	%edi, %eax
	cmova	%edi, %eax
LVL77:
	.loc 2 406 5 view LVU417
	.loc 2 408 5 view LVU418
	.loc 2 409 5 view LVU419
	.loc 2 409 5 is_stmt 0 view LVU420
LBE529:
LBE530:
	.loc 6 143 5 is_stmt 1 view LVU421
LBB531:
LBI531:
	.loc 5 164 20 view LVU422
LBB532:
	.loc 5 166 5 view LVU423
	.loc 5 167 5 view LVU424
	.loc 5 169 5 view LVU425
	.loc 5 171 5 view LVU426
	.loc 5 172 5 view LVU427
	.loc 5 190 5 view LVU428
	.loc 5 191 9 view LVU429
	.loc 5 192 9 view LVU430
	.loc 5 208 5 view LVU431
	.loc 5 209 5 view LVU432
	.loc 5 209 5 is_stmt 0 view LVU433
LBE532:
LBE531:
	.loc 6 144 5 is_stmt 1 view LVU434
	.loc 6 144 5 is_stmt 0 view LVU435
LBE535:
LBE538:
	.loc 6 157 17 discriminator 1 view LVU436
	addl	%esi, %edx
LVL78:
	.loc 6 157 17 discriminator 1 view LVU437
	movl	%edx, 56(%esp)
LVL79:
	.loc 6 158 5 is_stmt 1 view LVU438
LBB539:
LBI539:
	.loc 6 138 38 view LVU439
LBB540:
	.loc 6 142 5 view LVU440
LBB541:
LBI541:
	.loc 2 379 28 view LVU441
LBB542:
	.loc 2 381 5 view LVU442
	.loc 2 401 5 view LVU443
	.loc 2 401 5 view LVU444
	.loc 2 401 5 view LVU445
	.loc 2 402 5 view LVU446
	.loc 2 403 5 view LVU447
	movl	%eax, %edx
LVL80:
	.loc 2 403 5 is_stmt 0 view LVU448
	shrl	$3, %edx
	movl	(%ecx,%edx), %edx
	.loc 2 403 5 discriminator 1 view LVU449
	movl	%eax, %ecx
	.loc 2 405 5 view LVU450
	addl	$4, %eax
LVL81:
	.loc 2 403 5 discriminator 1 view LVU451
	andl	$7, %ecx
LVL82:
	.loc 2 403 5 discriminator 1 view LVU452
	bswap	%edx
	.loc 2 404 5 is_stmt 1 view LVU453
LVL83:
LBB543:
LBI543:
	.loc 4 124 24 view LVU454
LBB544:
	.loc 4 125 5 view LVU455
LBE544:
LBE543:
	.loc 2 403 5 is_stmt 0 discriminator 1 view LVU456
	sall	%cl, %edx
LBE542:
LBE541:
LBE540:
LBE539:
LBB558:
LBB486:
LBB483:
LBB480:
	.loc 5 191 32 view LVU457
	movl	60(%esp), %ecx
LBE480:
LBE483:
LBE486:
LBE558:
LBB559:
LBB555:
LBB548:
LBB547:
LBB546:
LBB545:
	.loc 4 125 5 view LVU458
/APP
 # 125 "./libavcodec/x86/mathops.h" 1
	shrl $-4, %edx
	
 # 0 "" 2
LVL84:
	.loc 4 129 5 is_stmt 1 view LVU459
	.loc 4 129 5 is_stmt 0 view LVU460
/NO_APP
LBE545:
LBE546:
	.loc 2 405 5 is_stmt 1 view LVU461
	cmpl	%edi, %eax
	cmova	%edi, %eax
LVL85:
	.loc 2 406 5 view LVU462
	.loc 2 408 5 view LVU463
	.loc 2 409 5 view LVU464
	.loc 2 409 5 is_stmt 0 view LVU465
LBE547:
LBE548:
	.loc 6 143 5 is_stmt 1 view LVU466
LBB549:
LBI549:
	.loc 5 164 20 view LVU467
LBB550:
	.loc 5 166 5 view LVU468
	.loc 5 167 5 view LVU469
	.loc 5 169 5 view LVU470
	.loc 5 171 5 view LVU471
	.loc 5 172 5 view LVU472
	.loc 5 190 5 view LVU473
	.loc 5 194 9 view LVU474
LBE550:
LBE549:
LBE555:
LBE559:
LBB560:
LBB487:
LBB484:
LBB481:
	.loc 5 191 32 is_stmt 0 view LVU475
	sall	$4, %ecx
	orl	%ebp, %ecx
LVL86:
	.loc 5 191 21 view LVU476
	movl	48(%esp), %ebp
	.loc 5 191 32 view LVU477
	sall	$4, %ecx
LVL87:
	.loc 5 191 32 view LVU478
	orl	$1310720, %ecx
	.loc 5 191 21 view LVU479
	orl	%ebp, %ecx
LBE481:
LBE484:
LBE487:
LBE560:
LBB561:
LBB518:
LBB515:
LBB513:
	movl	52(%esp), %ebp
LBE513:
LBE515:
LBE518:
LBE561:
LBB562:
LBB500:
LBB499:
LBB498:
	.loc 5 191 32 view LVU480
	sall	$4, %ecx
	.loc 5 191 21 view LVU481
	orl	%ebx, %ecx
LBE498:
LBE499:
LBE500:
LBE562:
LBB563:
LBB519:
LBB516:
LBB514:
	.loc 5 191 32 view LVU482
	sall	$2, %ecx
	.loc 5 191 21 view LVU483
	orl	%ebp, %ecx
LBE514:
LBE516:
LBE519:
LBE563:
	.loc 6 154 17 discriminator 1 view LVU484
	movl	44(%esp), %ebp
LBB564:
LBB536:
LBB534:
LBB533:
	.loc 5 191 32 view LVU485
	sall	$3, %ecx
	.loc 5 191 21 view LVU486
	orl	%esi, %ecx
LBE533:
LBE534:
LBE536:
LBE564:
LBB565:
LBB556:
LBB553:
LBB551:
	.loc 5 195 29 view LVU487
	movl	%edx, %esi
LVL88:
	.loc 5 194 19 view LVU488
	sall	$2, %ecx
LVL89:
	.loc 5 195 9 is_stmt 1 view LVU489
	.loc 5 196 9 view LVU490
	.loc 5 197 13 view LVU491
	.loc 5 195 29 is_stmt 0 view LVU492
	shrl	$2, %esi
	.loc 5 195 20 view LVU493
	orl	%ecx, %esi
LVL90:
	.loc 5 197 13 discriminator 1 view LVU494
	movl	40(%esp), %ecx
	bswap	%esi
LVL91:
	.loc 5 197 13 discriminator 1 view LVU495
	movl	%esi, 32(%ecx)
	.loc 5 198 13 is_stmt 1 view LVU496
LBE551:
LBE553:
LBE556:
LBE565:
	.loc 6 154 17 is_stmt 0 discriminator 1 view LVU497
	movl	48(%esp), %esi
LBB566:
LBB557:
LBB554:
LBB552:
	.loc 5 198 24 view LVU498
	addl	$36, %ecx
	movl	%ecx, 80(%esp)
	.loc 5 201 13 is_stmt 1 view LVU499
	.loc 5 203 9 view LVU500
LVL92:
	.loc 5 204 9 view LVU501
	.loc 5 208 5 view LVU502
	.loc 5 209 5 view LVU503
	.loc 5 209 5 is_stmt 0 view LVU504
LBE552:
LBE554:
	.loc 6 144 5 is_stmt 1 view LVU505
	.loc 6 144 5 is_stmt 0 view LVU506
LBE557:
LBE566:
LBB567:
LBB452:
LBB436:
LBB437:
	.loc 2 403 5 discriminator 1 view LVU507
	movl	%eax, %ecx
LBE437:
LBE436:
LBE452:
LBE567:
	.loc 6 154 17 discriminator 1 view LVU508
	addl	%ebp, %esi
LBB568:
LBB453:
LBB446:
LBB442:
	.loc 2 403 5 discriminator 1 view LVU509
	andl	$7, %ecx
LBE442:
LBE446:
LBE453:
LBE568:
	.loc 6 154 17 discriminator 1 view LVU510
	movl	%esi, %ebp
	movl	36(%esp), %esi
	.loc 6 155 17 discriminator 1 view LVU511
	addl	%ebx, %ebp
	.loc 6 158 17 discriminator 1 view LVU512
	leal	0(%ebp,%edx), %ebx
LVL93:
LBB569:
LBB454:
LBB447:
LBB443:
	.loc 2 406 5 view LVU513
	movl	$28, %ebp
LBE443:
LBE447:
LBE454:
LBE569:
	.loc 6 158 17 discriminator 1 view LVU514
	movl	%ebx, 44(%esp)
LVL94:
	.loc 6 159 5 is_stmt 1 view LVU515
LBB570:
LBI430:
	.loc 6 138 38 view LVU516
LBB455:
	.loc 6 142 5 view LVU517
LBB448:
LBI436:
	.loc 2 379 28 view LVU518
LBB444:
	.loc 2 381 5 view LVU519
	.loc 2 401 5 view LVU520
	.loc 2 401 5 view LVU521
	.loc 2 401 5 view LVU522
	.loc 2 402 5 view LVU523
	.loc 2 403 5 view LVU524
	movl	%eax, %ebx
LVL95:
	.loc 2 405 5 is_stmt 0 view LVU525
	addl	$1, %eax
LVL96:
	.loc 2 403 5 view LVU526
	shrl	$3, %ebx
LVL97:
	.loc 2 403 5 view LVU527
	movl	(%esi,%ebx), %ebx
	bswap	%ebx
	.loc 2 404 5 is_stmt 1 view LVU528
LVL98:
LBB438:
LBI438:
	.loc 4 124 24 view LVU529
LBB439:
	.loc 4 125 5 view LVU530
LBE439:
LBE438:
	.loc 2 403 5 is_stmt 0 discriminator 1 view LVU531
	sall	%cl, %ebx
LBB441:
LBB440:
	.loc 4 125 5 view LVU532
	movl	%ebx, %ecx
/APP
 # 125 "./libavcodec/x86/mathops.h" 1
	shrl $-1, %ecx
	
 # 0 "" 2
LVL99:
	.loc 4 129 5 is_stmt 1 view LVU533
	.loc 4 129 5 is_stmt 0 view LVU534
/NO_APP
LBE440:
LBE441:
	.loc 2 405 5 is_stmt 1 view LVU535
	cmpl	%edi, %eax
	cmova	%edi, %eax
LVL100:
	.loc 2 405 5 is_stmt 0 view LVU536
LBE444:
LBE448:
LBB449:
LBB434:
	.loc 5 191 32 view LVU537
	addl	%edx, %edx
LVL101:
	.loc 5 191 21 view LVU538
	orl	%ecx, %edx
	.loc 5 208 17 view LVU539
	movl	%edx, 68(%esp)
LBE434:
LBE449:
LBB450:
LBB445:
	.loc 2 405 5 view LVU540
	movl	%eax, %ebx
LVL102:
	.loc 2 406 5 is_stmt 1 view LVU541
	.loc 2 408 5 view LVU542
	.loc 2 409 5 view LVU543
	.loc 2 409 5 is_stmt 0 view LVU544
LBE445:
LBE450:
	.loc 6 143 5 is_stmt 1 view LVU545
LBB451:
LBI432:
	.loc 5 164 20 view LVU546
LBB435:
	.loc 5 166 5 view LVU547
	.loc 5 167 5 view LVU548
	.loc 5 169 5 view LVU549
	.loc 5 171 5 view LVU550
	.loc 5 172 5 view LVU551
	.loc 5 190 5 view LVU552
	.loc 5 191 9 view LVU553
	.loc 5 192 9 view LVU554
	.loc 5 208 5 view LVU555
	.loc 5 209 5 view LVU556
	.loc 5 209 5 is_stmt 0 view LVU557
LBE435:
LBE451:
	.loc 6 144 5 is_stmt 1 view LVU558
	.loc 6 144 5 is_stmt 0 view LVU559
LBE455:
LBE570:
	.loc 6 159 8 discriminator 1 view LVU560
	testl	%ecx, %ecx
	jne	L66
LVL103:
L21:
	.loc 6 161 5 is_stmt 1 view LVU561
LBB571:
LBI571:
	.loc 6 138 38 view LVU562
LBB572:
	.loc 6 142 5 view LVU563
LBB573:
LBI573:
	.loc 2 379 28 view LVU564
LBB574:
	.loc 2 381 5 view LVU565
	.loc 2 401 5 view LVU566
	.loc 2 401 5 view LVU567
	.loc 2 401 5 view LVU568
	.loc 2 402 5 view LVU569
	.loc 2 403 5 view LVU570
	movl	%ebx, %eax
	.loc 2 403 5 is_stmt 0 discriminator 1 view LVU571
	movl	%ebx, %ecx
	.loc 2 405 5 view LVU572
	addl	$1, %ebx
LVL104:
	.loc 2 405 5 view LVU573
LBE574:
LBE573:
LBB583:
LBB584:
	.loc 5 209 17 view LVU574
	movl	%ebp, 72(%esp)
LBE584:
LBE583:
LBB587:
LBB581:
	.loc 2 403 5 view LVU575
	shrl	$3, %eax
LVL105:
	.loc 2 403 5 discriminator 1 view LVU576
	andl	$7, %ecx
LVL106:
	.loc 2 403 5 discriminator 1 view LVU577
	movl	(%esi,%eax), %eax
	bswap	%eax
	.loc 2 404 5 is_stmt 1 view LVU578
LVL107:
LBB575:
LBI575:
	.loc 4 124 24 view LVU579
LBB576:
	.loc 4 125 5 view LVU580
LBE576:
LBE575:
	.loc 2 403 5 is_stmt 0 discriminator 1 view LVU581
	sall	%cl, %eax
LBB579:
LBB577:
	.loc 4 125 5 view LVU582
	movl	%eax, %ecx
LBE577:
LBE579:
LBE581:
LBE587:
LBB588:
LBB585:
	.loc 5 191 32 view LVU583
	leal	(%edx,%edx), %eax
LBE585:
LBE588:
LBB589:
LBB582:
LBB580:
LBB578:
	.loc 4 125 5 view LVU584
/APP
 # 125 "./libavcodec/x86/mathops.h" 1
	shrl $-1, %ecx
	
 # 0 "" 2
LVL108:
	.loc 4 129 5 is_stmt 1 view LVU585
	.loc 4 129 5 is_stmt 0 view LVU586
/NO_APP
LBE578:
LBE580:
	.loc 2 405 5 is_stmt 1 view LVU587
	cmpl	%edi, %ebx
	cmova	%edi, %ebx
LVL109:
	.loc 2 406 5 view LVU588
	.loc 2 408 5 view LVU589
	.loc 2 409 5 view LVU590
	.loc 2 409 5 is_stmt 0 view LVU591
LBE582:
LBE589:
	.loc 6 143 5 is_stmt 1 view LVU592
LBB590:
LBI583:
	.loc 5 164 20 view LVU593
LBB586:
	.loc 5 166 5 view LVU594
	.loc 5 167 5 view LVU595
	.loc 5 169 5 view LVU596
	.loc 5 171 5 view LVU597
	.loc 5 172 5 view LVU598
	.loc 5 190 5 view LVU599
	.loc 5 191 9 view LVU600
	.loc 5 191 21 is_stmt 0 view LVU601
	orl	%ecx, %eax
LVL110:
	.loc 5 192 9 is_stmt 1 view LVU602
	.loc 5 208 5 view LVU603
	.loc 5 208 17 is_stmt 0 view LVU604
	movl	%eax, 68(%esp)
	.loc 5 209 5 is_stmt 1 view LVU605
LVL111:
	.loc 5 209 5 is_stmt 0 view LVU606
LBE586:
LBE590:
	.loc 6 144 5 is_stmt 1 view LVU607
	.loc 6 144 5 is_stmt 0 view LVU608
LBE572:
LBE571:
	.loc 6 161 8 discriminator 1 view LVU609
	testl	%ecx, %ecx
	jne	L67
LVL112:
L23:
	.loc 6 163 5 is_stmt 1 view LVU610
LBB591:
LBI591:
	.loc 6 138 38 view LVU611
LBB592:
	.loc 6 142 5 view LVU612
LBB593:
LBI593:
	.loc 2 379 28 view LVU613
LBB594:
	.loc 2 381 5 view LVU614
	.loc 2 401 5 view LVU615
	.loc 2 401 5 view LVU616
	.loc 2 401 5 view LVU617
	.loc 2 402 5 view LVU618
	.loc 2 403 5 view LVU619
	movl	36(%esp), %esi
	movl	%ebx, %edx
	.loc 2 403 5 is_stmt 0 discriminator 1 view LVU620
	movl	%ebx, %ecx
	.loc 2 405 5 view LVU621
	addl	$1, %ebx
LVL113:
	.loc 2 403 5 view LVU622
	shrl	$3, %edx
LVL114:
	.loc 2 403 5 discriminator 1 view LVU623
	andl	$7, %ecx
LVL115:
	.loc 2 403 5 discriminator 1 view LVU624
	movl	(%esi,%edx), %edx
LBE594:
LBE593:
LBB600:
LBB601:
	.loc 5 192 20 view LVU625
	leal	-1(%ebp), %esi
	.loc 5 209 17 view LVU626
	movl	%esi, 72(%esp)
	bswap	%edx
LBE601:
LBE600:
LBB603:
LBB599:
	.loc 2 404 5 is_stmt 1 view LVU627
LVL116:
LBB595:
LBI595:
	.loc 4 124 24 view LVU628
LBB596:
	.loc 4 125 5 view LVU629
LBE596:
LBE595:
	.loc 2 403 5 is_stmt 0 discriminator 1 view LVU630
	sall	%cl, %edx
LBB598:
LBB597:
	.loc 4 125 5 view LVU631
/APP
 # 125 "./libavcodec/x86/mathops.h" 1
	shrl $-1, %edx
	
 # 0 "" 2
LVL117:
	.loc 4 129 5 is_stmt 1 view LVU632
	.loc 4 129 5 is_stmt 0 view LVU633
/NO_APP
LBE597:
LBE598:
	.loc 2 405 5 is_stmt 1 view LVU634
	cmpl	%edi, %ebx
	cmova	%edi, %ebx
LVL118:
	.loc 2 406 5 view LVU635
	.loc 2 408 5 view LVU636
	.loc 2 409 5 view LVU637
	.loc 2 409 5 is_stmt 0 view LVU638
LBE599:
LBE603:
	.loc 6 143 5 is_stmt 1 view LVU639
LBB604:
LBI600:
	.loc 5 164 20 view LVU640
LBB602:
	.loc 5 166 5 view LVU641
	.loc 5 167 5 view LVU642
	.loc 5 169 5 view LVU643
	.loc 5 171 5 view LVU644
	.loc 5 172 5 view LVU645
	.loc 5 190 5 view LVU646
	.loc 5 191 9 view LVU647
	.loc 5 191 32 is_stmt 0 view LVU648
	addl	%eax, %eax
	.loc 5 191 21 view LVU649
	orl	%edx, %eax
LVL119:
	.loc 5 192 9 is_stmt 1 view LVU650
	.loc 5 208 5 view LVU651
	.loc 5 208 17 is_stmt 0 view LVU652
	movl	%eax, 68(%esp)
	.loc 5 209 5 is_stmt 1 view LVU653
LVL120:
	.loc 5 209 5 is_stmt 0 view LVU654
LBE602:
LBE604:
	.loc 6 144 5 is_stmt 1 view LVU655
	.loc 6 144 5 is_stmt 0 view LVU656
LBE592:
LBE591:
	.loc 6 163 8 discriminator 1 view LVU657
	testl	%edx, %edx
	jne	L68
LVL121:
L25:
	.loc 6 165 5 is_stmt 1 view LVU658
	.loc 6 165 28 is_stmt 0 view LVU659
	movl	44(%esp), %edx
	.loc 6 165 15 view LVU660
	movl	56(%esp), %ecx
	.loc 6 165 28 view LVU661
	leal	(%edx,%edx,4), %edx
	.loc 6 165 15 view LVU662
	leal	(%edx,%ecx,4), %ebp
	movl	%ebp, 52(%esp)
LVL122:
	.loc 6 165 51 is_stmt 1 discriminator 1 view LVU663
	cmpl	$16, %ebp
	jle	L26
	.loc 6 165 15 is_stmt 0 view LVU664
	movl	%edi, 44(%esp)
LVL123:
	.loc 6 165 15 view LVU665
	jmp	L31
LVL124:
	.p2align 4,,10
	.p2align 3
L70:
LBB605:
LBB606:
LBB607:
LBB608:
	.loc 5 191 9 is_stmt 1 view LVU666
	.loc 5 191 32 is_stmt 0 view LVU667
	sall	$16, %eax
	.loc 5 192 20 view LVU668
	subl	$16, %esi
LBE608:
LBE607:
LBE606:
LBE605:
	.loc 6 165 62 discriminator 3 view LVU669
	subl	$16, %ebp
LVL125:
LBB627:
LBB623:
LBB613:
LBB609:
	.loc 5 191 21 view LVU670
	orl	%edi, %eax
LVL126:
	.loc 5 192 9 is_stmt 1 view LVU671
	.loc 5 208 5 view LVU672
	.loc 5 209 17 is_stmt 0 view LVU673
	movl	%esi, 72(%esp)
	.loc 5 208 17 view LVU674
	movl	%eax, 68(%esp)
	.loc 5 209 5 is_stmt 1 view LVU675
LVL127:
	.loc 5 209 5 is_stmt 0 view LVU676
LBE609:
LBE613:
	.loc 6 144 5 is_stmt 1 view LVU677
	.loc 6 144 5 is_stmt 0 view LVU678
LBE623:
LBE627:
	.loc 6 165 62 is_stmt 1 discriminator 3 view LVU679
	.loc 6 165 51 discriminator 1 view LVU680
	cmpl	$16, %ebp
	jle	L69
LVL128:
L31:
	.loc 6 166 9 view LVU681
LBB628:
LBI605:
	.loc 6 138 38 view LVU682
LBB624:
	.loc 6 142 5 view LVU683
LBB614:
LBI614:
	.loc 2 379 28 view LVU684
LBB615:
	.loc 2 381 5 view LVU685
	.loc 2 401 5 view LVU686
	.loc 2 401 5 view LVU687
	.loc 2 401 5 view LVU688
	.loc 2 402 5 view LVU689
	.loc 2 403 5 view LVU690
	movl	%ebx, %edx
	movl	36(%esp), %edi
	.loc 2 403 5 is_stmt 0 discriminator 1 view LVU691
	movl	%ebx, %ecx
	.loc 2 405 5 view LVU692
	addl	$16, %ebx
LVL129:
	.loc 2 403 5 view LVU693
	shrl	$3, %edx
LVL130:
	.loc 2 403 5 discriminator 1 view LVU694
	andl	$7, %ecx
LVL131:
	.loc 2 403 5 discriminator 1 view LVU695
	movl	(%edi,%edx), %edi
	bswap	%edi
LVL132:
	.loc 2 404 5 is_stmt 1 view LVU696
LBB616:
LBI616:
	.loc 4 124 24 view LVU697
LBB617:
	.loc 4 125 5 view LVU698
LBE617:
LBE616:
	.loc 2 403 5 is_stmt 0 discriminator 1 view LVU699
	sall	%cl, %edi
	.loc 2 405 5 view LVU700
	movl	44(%esp), %ecx
LBB619:
LBB618:
	.loc 4 125 5 view LVU701
/APP
 # 125 "./libavcodec/x86/mathops.h" 1
	shrl $-16, %edi
	
 # 0 "" 2
LVL133:
	.loc 4 129 5 is_stmt 1 view LVU702
	.loc 4 129 5 is_stmt 0 view LVU703
/NO_APP
LBE618:
LBE619:
	.loc 2 405 5 is_stmt 1 view LVU704
	cmpl	%ebx, %ecx
	cmovbe	%ecx, %ebx
LVL134:
	.loc 2 406 5 view LVU705
	.loc 2 408 5 view LVU706
	.loc 2 409 5 view LVU707
	.loc 2 409 5 is_stmt 0 view LVU708
LBE615:
LBE614:
	.loc 6 143 5 is_stmt 1 view LVU709
LBB620:
LBI607:
	.loc 5 164 20 view LVU710
LBB610:
	.loc 5 166 5 view LVU711
	.loc 5 167 5 view LVU712
	.loc 5 169 5 view LVU713
	.loc 5 171 5 view LVU714
	.loc 5 172 5 view LVU715
	.loc 5 190 5 view LVU716
	.loc 5 190 8 is_stmt 0 view LVU717
	cmpl	$16, %esi
	jg	L70
	.loc 5 194 9 is_stmt 1 view LVU718
LVL135:
	.loc 5 195 9 view LVU719
	.loc 5 196 9 view LVU720
	.loc 5 196 31 is_stmt 0 view LVU721
	movl	80(%esp), %edx
	.loc 5 196 28 view LVU722
	movl	84(%esp), %ecx
	subl	%edx, %ecx
	.loc 5 196 12 view LVU723
	cmpl	$3, %ecx
	jle	L29
	.loc 5 197 13 is_stmt 1 view LVU724
LVL136:
	.loc 5 194 19 is_stmt 0 view LVU725
	movl	%esi, %ecx
	sall	%cl, %eax
	.loc 5 195 35 view LVU726
	movl	$16, %ecx
	.loc 5 194 19 view LVU727
	movl	%eax, 48(%esp)
	.loc 5 195 35 view LVU728
	subl	%esi, %ecx
	.loc 5 195 29 view LVU729
	movl	%edi, %eax
	shrl	%cl, %eax
	movl	%eax, %ecx
	.loc 5 195 20 view LVU730
	movl	48(%esp), %eax
	orl	%ecx, %eax
	bswap	%eax
LVL137:
	.loc 5 197 13 discriminator 1 view LVU731
	movl	%eax, (%edx)
LVL138:
	.loc 5 198 13 is_stmt 1 view LVU732
	.loc 5 198 24 is_stmt 0 view LVU733
	addl	$4, 80(%esp)
L30:
	.loc 5 201 13 is_stmt 1 view LVU734
	.loc 5 203 9 view LVU735
	.loc 5 203 20 is_stmt 0 view LVU736
	addl	$16, %esi
LVL139:
	.loc 5 204 9 is_stmt 1 view LVU737
	.loc 5 204 21 is_stmt 0 view LVU738
	movl	%edi, %eax
	.loc 5 208 5 is_stmt 1 view LVU739
LBE610:
LBE620:
LBE624:
LBE628:
	.loc 6 165 62 is_stmt 0 discriminator 3 view LVU740
	subl	$16, %ebp
LVL140:
LBB629:
LBB625:
LBB621:
LBB611:
	.loc 5 208 17 view LVU741
	movl	%eax, 68(%esp)
	.loc 5 209 5 is_stmt 1 view LVU742
	.loc 5 209 17 is_stmt 0 view LVU743
	movl	%esi, 72(%esp)
LVL141:
	.loc 5 209 17 view LVU744
LBE611:
LBE621:
	.loc 6 144 5 is_stmt 1 view LVU745
	.loc 6 144 5 is_stmt 0 view LVU746
LBE625:
LBE629:
	.loc 6 165 62 is_stmt 1 discriminator 3 view LVU747
	.loc 6 165 51 discriminator 1 view LVU748
	cmpl	$16, %ebp
	jg	L31
L69:
	.loc 6 165 51 is_stmt 0 discriminator 1 view LVU749
	movl	52(%esp), %ecx
	movl	44(%esp), %edi
LVL142:
	.loc 6 165 51 discriminator 1 view LVU750
	leal	-17(%ecx), %edx
	subl	$16, %ecx
	andl	$-16, %edx
	subl	%edx, %ecx
	movl	%ecx, 52(%esp)
	.loc 6 167 5 is_stmt 1 view LVU751
LVL143:
L32:
	.loc 6 168 9 view LVU752
LBB630:
LBI630:
	.loc 6 138 38 view LVU753
LBB631:
	.loc 6 142 5 view LVU754
LBB632:
LBI632:
	.loc 2 379 28 view LVU755
LBB633:
	.loc 2 381 5 view LVU756
	.loc 2 401 5 view LVU757
	.loc 2 401 5 view LVU758
	.loc 2 401 5 view LVU759
	.loc 2 402 5 view LVU760
	.loc 2 403 5 view LVU761
	movl	36(%esp), %ecx
	movl	%ebx, %edx
	shrl	$3, %edx
	movl	(%ecx,%edx), %edx
LBB634:
LBB635:
	.loc 4 127 18 is_stmt 0 view LVU762
	movzbl	52(%esp), %ecx
	negl	%ecx
	bswap	%edx
LVL144:
	.loc 4 127 18 view LVU763
LBE635:
LBE634:
	.loc 2 404 5 is_stmt 1 view LVU764
LBB638:
LBI634:
	.loc 4 124 24 view LVU765
LBB636:
	.loc 4 125 5 view LVU766
	.loc 4 127 18 is_stmt 0 view LVU767
	movl	%ecx, %ebp
LVL145:
	.loc 4 127 18 view LVU768
LBE636:
LBE638:
	.loc 2 403 5 discriminator 1 view LVU769
	movl	%ebx, %ecx
	andl	$7, %ecx
	sall	%cl, %edx
LBB639:
LBB637:
	.loc 4 125 5 view LVU770
	movl	%ebp, %ecx
/APP
 # 125 "./libavcodec/x86/mathops.h" 1
	shrl %cl, %edx
	
 # 0 "" 2
/NO_APP
	movl	%edx, %ebp
LVL146:
	.loc 4 129 5 is_stmt 1 view LVU771
	.loc 4 129 5 is_stmt 0 view LVU772
LBE637:
LBE639:
	.loc 2 405 5 is_stmt 1 view LVU773
	movl	52(%esp), %edx
LVL147:
	.loc 2 405 5 is_stmt 0 view LVU774
	addl	%edx, %ebx
	.loc 2 405 5 view LVU775
	cmpl	%edi, %ebx
	cmova	%edi, %ebx
LVL148:
	.loc 2 406 5 is_stmt 1 view LVU776
	.loc 2 408 5 view LVU777
	.loc 2 409 5 view LVU778
	.loc 2 409 5 is_stmt 0 view LVU779
LBE633:
LBE632:
	.loc 6 143 5 is_stmt 1 view LVU780
LBB640:
LBI640:
	.loc 5 164 20 view LVU781
LBB641:
	.loc 5 166 5 view LVU782
	.loc 5 167 5 view LVU783
	.loc 5 169 5 view LVU784
	.loc 5 171 5 view LVU785
	.loc 5 172 5 view LVU786
	.loc 5 190 5 view LVU787
	.loc 5 190 8 is_stmt 0 view LVU788
	cmpl	%esi, %edx
	jl	L71
	.loc 5 194 9 is_stmt 1 view LVU789
LVL149:
	.loc 5 195 9 view LVU790
	.loc 5 196 9 view LVU791
	.loc 5 196 31 is_stmt 0 view LVU792
	movl	80(%esp), %edx
	.loc 5 196 28 view LVU793
	movl	84(%esp), %ecx
	subl	%edx, %ecx
	.loc 5 196 12 view LVU794
	cmpl	$3, %ecx
	jle	L36
	.loc 5 197 13 is_stmt 1 view LVU795
LVL150:
	.loc 5 194 19 is_stmt 0 view LVU796
	movl	%esi, %ecx
	sall	%cl, %eax
	.loc 5 195 35 view LVU797
	movl	52(%esp), %ecx
	.loc 5 194 19 view LVU798
	movl	%eax, 44(%esp)
	.loc 5 195 29 view LVU799
	movl	%ebp, %eax
	.loc 5 195 35 view LVU800
	subl	%esi, %ecx
	.loc 5 195 29 view LVU801
	shrl	%cl, %eax
	movl	%eax, %ecx
	.loc 5 195 20 view LVU802
	movl	44(%esp), %eax
	orl	%ecx, %eax
	bswap	%eax
LVL151:
	.loc 5 197 13 discriminator 1 view LVU803
	movl	%eax, (%edx)
LVL152:
	.loc 5 198 13 is_stmt 1 view LVU804
	.loc 5 198 24 is_stmt 0 view LVU805
	addl	$4, 80(%esp)
L37:
	.loc 5 201 13 is_stmt 1 view LVU806
	.loc 5 203 9 view LVU807
	.loc 5 203 26 is_stmt 0 view LVU808
	movl	%esi, %eax
	movl	52(%esp), %esi
	subl	%esi, %eax
	.loc 5 203 20 view LVU809
	addl	$32, %eax
LVL153:
	.loc 5 204 9 is_stmt 1 view LVU810
L35:
	.loc 5 208 5 view LVU811
	.loc 5 208 17 is_stmt 0 view LVU812
	movl	%ebp, 68(%esp)
	.loc 5 209 5 is_stmt 1 view LVU813
	.loc 5 209 17 is_stmt 0 view LVU814
	movl	%eax, 72(%esp)
LVL154:
	.loc 5 209 17 view LVU815
LBE641:
LBE640:
	.loc 6 144 5 is_stmt 1 view LVU816
LBB645:
LBB642:
	.loc 5 210 1 is_stmt 0 view LVU817
	jmp	L33
LVL155:
	.p2align 4,,10
	.p2align 3
L29:
	.loc 5 210 1 view LVU818
LBE642:
LBE645:
LBE631:
LBE630:
LBB650:
LBB626:
LBB622:
LBB612:
	.loc 5 200 13 is_stmt 1 view LVU819
	movl	$LC6, 8(%esp)
	movl	$16, 4(%esp)
	movl	$0, (%esp)
	call	_av_log
LVL156:
	.loc 5 200 13 is_stmt 0 view LVU820
	jmp	L30
LVL157:
	.p2align 4,,10
	.p2align 3
L68:
	.loc 5 200 13 view LVU821
LBE612:
LBE622:
LBE626:
LBE650:
	.loc 6 164 9 is_stmt 1 view LVU822
LBB651:
LBI651:
	.loc 6 138 38 view LVU823
LBB652:
	.loc 6 142 5 view LVU824
LBB653:
LBI653:
	.loc 2 379 28 view LVU825
LBB654:
	.loc 2 381 5 view LVU826
	.loc 2 401 5 view LVU827
	.loc 2 401 5 view LVU828
	.loc 2 401 5 view LVU829
	.loc 2 402 5 view LVU830
	.loc 2 403 5 view LVU831
	movl	36(%esp), %esi
	movl	%ebx, %edx
LVL158:
	.loc 2 403 5 is_stmt 0 discriminator 1 view LVU832
	movl	%ebx, %ecx
	.loc 2 405 5 view LVU833
	addl	$3, %ebx
LVL159:
	.loc 2 403 5 view LVU834
	shrl	$3, %edx
LVL160:
	.loc 2 403 5 discriminator 1 view LVU835
	andl	$7, %ecx
LVL161:
	.loc 2 403 5 discriminator 1 view LVU836
	movl	(%esi,%edx), %edx
LBE654:
LBE653:
LBB660:
LBB661:
	.loc 5 192 20 view LVU837
	leal	-4(%ebp), %esi
	.loc 5 209 17 view LVU838
	movl	%esi, 72(%esp)
	bswap	%edx
LBE661:
LBE660:
LBB664:
LBB659:
	.loc 2 404 5 is_stmt 1 view LVU839
LVL162:
LBB655:
LBI655:
	.loc 4 124 24 view LVU840
LBB656:
	.loc 4 125 5 view LVU841
LBE656:
LBE655:
	.loc 2 403 5 is_stmt 0 discriminator 1 view LVU842
	sall	%cl, %edx
LBB658:
LBB657:
	.loc 4 125 5 view LVU843
/APP
 # 125 "./libavcodec/x86/mathops.h" 1
	shrl $-3, %edx
	
 # 0 "" 2
LVL163:
	.loc 4 129 5 is_stmt 1 view LVU844
	.loc 4 129 5 is_stmt 0 view LVU845
/NO_APP
LBE657:
LBE658:
	.loc 2 405 5 is_stmt 1 view LVU846
	cmpl	%edi, %ebx
	cmova	%edi, %ebx
LVL164:
	.loc 2 406 5 view LVU847
	.loc 2 408 5 view LVU848
	.loc 2 409 5 view LVU849
	.loc 2 409 5 is_stmt 0 view LVU850
LBE659:
LBE664:
	.loc 6 143 5 is_stmt 1 view LVU851
LBB665:
LBI660:
	.loc 5 164 20 view LVU852
LBB662:
	.loc 5 166 5 view LVU853
	.loc 5 167 5 view LVU854
	.loc 5 169 5 view LVU855
	.loc 5 171 5 view LVU856
	.loc 5 172 5 view LVU857
	.loc 5 190 5 view LVU858
	.loc 5 191 9 view LVU859
	.loc 5 191 32 is_stmt 0 view LVU860
	sall	$3, %eax
LVL165:
	.loc 5 191 21 view LVU861
	orl	%edx, %eax
LVL166:
	.loc 5 192 9 is_stmt 1 view LVU862
	.loc 5 208 5 view LVU863
	.loc 5 208 17 is_stmt 0 view LVU864
	movl	%eax, 68(%esp)
	.loc 5 209 5 is_stmt 1 view LVU865
LVL167:
	.loc 5 209 5 is_stmt 0 view LVU866
LBE662:
LBE665:
	.loc 6 144 5 is_stmt 1 view LVU867
LBB666:
LBB663:
	.loc 5 210 1 is_stmt 0 view LVU868
	jmp	L25
LVL168:
	.p2align 4,,10
	.p2align 3
L67:
	.loc 5 210 1 view LVU869
LBE663:
LBE666:
LBE652:
LBE651:
	.loc 6 162 9 is_stmt 1 view LVU870
LBB667:
LBI667:
	.loc 6 138 38 view LVU871
LBB668:
	.loc 6 142 5 view LVU872
LBB669:
LBI669:
	.loc 2 379 28 view LVU873
LBB670:
	.loc 2 381 5 view LVU874
	.loc 2 401 5 view LVU875
	.loc 2 401 5 view LVU876
	.loc 2 401 5 view LVU877
	.loc 2 402 5 view LVU878
	.loc 2 403 5 view LVU879
	movl	%ebx, %edx
	.loc 2 403 5 is_stmt 0 discriminator 1 view LVU880
	movl	%ebx, %ecx
LVL169:
	.loc 2 405 5 view LVU881
	addl	$4, %ebx
LVL170:
	.loc 2 403 5 view LVU882
	shrl	$3, %edx
LVL171:
	.loc 2 403 5 discriminator 1 view LVU883
	andl	$7, %ecx
LVL172:
	.loc 2 403 5 discriminator 1 view LVU884
	movl	(%esi,%edx), %edx
	bswap	%edx
	.loc 2 404 5 is_stmt 1 view LVU885
LVL173:
LBB671:
LBI671:
	.loc 4 124 24 view LVU886
LBB672:
	.loc 4 125 5 view LVU887
LBE672:
LBE671:
	.loc 2 403 5 is_stmt 0 discriminator 1 view LVU888
	sall	%cl, %edx
LBB674:
LBB673:
	.loc 4 125 5 view LVU889
/APP
 # 125 "./libavcodec/x86/mathops.h" 1
	shrl $-4, %edx
	
 # 0 "" 2
LVL174:
	.loc 4 129 5 is_stmt 1 view LVU890
	.loc 4 129 5 is_stmt 0 view LVU891
/NO_APP
LBE673:
LBE674:
	.loc 2 405 5 is_stmt 1 view LVU892
	cmpl	%edi, %ebx
	cmova	%edi, %ebx
LVL175:
	.loc 2 406 5 view LVU893
	.loc 2 408 5 view LVU894
	.loc 2 409 5 view LVU895
	.loc 2 409 5 is_stmt 0 view LVU896
LBE670:
LBE669:
	.loc 6 143 5 is_stmt 1 view LVU897
LBB675:
LBI675:
	.loc 5 164 20 view LVU898
LBB676:
	.loc 5 166 5 view LVU899
	.loc 5 167 5 view LVU900
	.loc 5 169 5 view LVU901
	.loc 5 171 5 view LVU902
	.loc 5 172 5 view LVU903
	.loc 5 190 5 view LVU904
	.loc 5 191 9 view LVU905
	.loc 5 191 32 is_stmt 0 view LVU906
	sall	$4, %eax
LVL176:
	.loc 5 192 20 view LVU907
	subl	$4, %ebp
LVL177:
	.loc 5 191 21 view LVU908
	orl	%edx, %eax
LVL178:
	.loc 5 192 9 is_stmt 1 view LVU909
	.loc 5 208 5 view LVU910
	.loc 5 209 5 view LVU911
	.loc 5 209 5 is_stmt 0 view LVU912
LBE676:
LBE675:
	.loc 6 144 5 is_stmt 1 view LVU913
LBB678:
LBB677:
	.loc 5 210 1 is_stmt 0 view LVU914
	jmp	L23
LVL179:
	.p2align 4,,10
	.p2align 3
L66:
	.loc 5 210 1 view LVU915
LBE677:
LBE678:
LBE668:
LBE667:
	.loc 6 160 9 is_stmt 1 view LVU916
LBB679:
LBI679:
	.loc 6 138 38 view LVU917
LBB680:
	.loc 6 142 5 view LVU918
LBB681:
LBI681:
	.loc 2 379 28 view LVU919
LBB682:
	.loc 2 381 5 view LVU920
	.loc 2 401 5 view LVU921
	.loc 2 401 5 view LVU922
	.loc 2 401 5 view LVU923
	.loc 2 402 5 view LVU924
	.loc 2 403 5 view LVU925
	shrl	$3, %eax
LVL180:
	.loc 2 403 5 is_stmt 0 discriminator 1 view LVU926
	movl	%ebx, %ecx
LVL181:
	.loc 2 405 5 view LVU927
	addl	$4, %ebx
LVL182:
	.loc 2 405 5 view LVU928
LBE682:
LBE681:
LBB688:
LBB689:
	.loc 5 210 1 view LVU929
	movl	$24, %ebp
	movl	(%esi,%eax), %eax
LBE689:
LBE688:
LBB692:
LBB687:
	.loc 2 403 5 discriminator 1 view LVU930
	andl	$7, %ecx
LVL183:
	.loc 2 403 5 discriminator 1 view LVU931
	bswap	%eax
	.loc 2 404 5 is_stmt 1 view LVU932
LVL184:
LBB683:
LBI683:
	.loc 4 124 24 view LVU933
LBB684:
	.loc 4 125 5 view LVU934
LBE684:
LBE683:
	.loc 2 403 5 is_stmt 0 discriminator 1 view LVU935
	sall	%cl, %eax
LBB686:
LBB685:
	.loc 4 125 5 view LVU936
	movl	%eax, %ecx
/APP
 # 125 "./libavcodec/x86/mathops.h" 1
	shrl $-4, %ecx
	
 # 0 "" 2
LVL185:
	.loc 4 129 5 is_stmt 1 view LVU937
	.loc 4 129 5 is_stmt 0 view LVU938
/NO_APP
LBE685:
LBE686:
	.loc 2 405 5 is_stmt 1 view LVU939
	cmpl	%edi, %ebx
	cmova	%edi, %ebx
LVL186:
	.loc 2 406 5 view LVU940
	.loc 2 408 5 view LVU941
	.loc 2 409 5 view LVU942
	.loc 2 409 5 is_stmt 0 view LVU943
LBE687:
LBE692:
	.loc 6 143 5 is_stmt 1 view LVU944
LBB693:
LBI688:
	.loc 5 164 20 view LVU945
LBB690:
	.loc 5 166 5 view LVU946
	.loc 5 167 5 view LVU947
	.loc 5 169 5 view LVU948
	.loc 5 171 5 view LVU949
	.loc 5 172 5 view LVU950
	.loc 5 190 5 view LVU951
	.loc 5 191 9 view LVU952
	.loc 5 191 32 is_stmt 0 view LVU953
	sall	$4, %edx
LVL187:
	.loc 5 191 21 view LVU954
	orl	%ecx, %edx
LVL188:
	.loc 5 192 9 is_stmt 1 view LVU955
	.loc 5 208 5 view LVU956
	.loc 5 209 5 view LVU957
	.loc 5 209 5 is_stmt 0 view LVU958
LBE690:
LBE693:
	.loc 6 144 5 is_stmt 1 view LVU959
LBB694:
LBB691:
	.loc 5 210 1 is_stmt 0 view LVU960
	jmp	L21
LVL189:
L26:
	.loc 5 210 1 view LVU961
LBE691:
LBE694:
LBE680:
LBE679:
	.loc 6 167 5 is_stmt 1 view LVU962
	.loc 6 167 8 is_stmt 0 view LVU963
	movl	52(%esp), %edx
	testl	%edx, %edx
	jne	L32
LVL190:
L33:
	.loc 6 169 5 is_stmt 1 view LVU964
	leal	68(%esp), %eax
LVL191:
	.loc 6 169 5 is_stmt 0 view LVU965
	movl	%eax, (%esp)
	call	_avpriv_align_put_bits
LVL192:
	.loc 6 170 5 is_stmt 1 view LVU966
LBB695:
LBI695:
	.loc 2 693 30 view LVU967
LBB696:
	.loc 2 695 5 view LVU968
	.loc 2 695 13 is_stmt 0 discriminator 1 view LVU969
	movl	%ebx, %edx
	movl	36(%esp), %esi
LBE696:
LBE695:
LBB703:
LBB704:
LBB705:
LBB706:
	.loc 5 172 14 view LVU970
	movl	72(%esp), %ebp
LBE706:
LBE705:
LBE704:
LBE703:
LBB731:
LBB701:
	.loc 2 695 13 discriminator 1 view LVU971
	negl	%edx
	.loc 2 695 9 discriminator 1 view LVU972
	andl	$7, %edx
LVL193:
	.loc 2 696 5 is_stmt 1 view LVU973
LBB697:
LBB698:
	.loc 2 493 5 is_stmt 0 view LVU974
	leal	(%edx,%ebx), %eax
	cmpl	%edi, %eax
	cmova	%edi, %eax
	testl	%edx, %edx
LBE698:
LBE697:
LBE701:
LBE731:
LBB732:
LBB727:
LBB712:
LBB707:
	.loc 5 196 31 view LVU975
	movl	80(%esp), %edx
LVL194:
	.loc 5 196 31 view LVU976
LBE707:
LBE712:
LBE727:
LBE732:
LBB733:
LBB702:
LBB700:
LBB699:
	.loc 2 493 5 view LVU977
	cmovne	%eax, %ebx
LVL195:
	.loc 2 493 5 view LVU978
LBE699:
LBE700:
	.loc 2 698 5 is_stmt 1 view LVU979
	.loc 2 698 5 is_stmt 0 view LVU980
LBE702:
LBE733:
	.loc 6 171 5 is_stmt 1 view LVU981
LBB734:
LBI703:
	.loc 6 138 38 view LVU982
LBB728:
	.loc 6 142 5 view LVU983
LBB713:
LBI713:
	.loc 2 379 28 view LVU984
LBB714:
	.loc 2 381 5 view LVU985
	.loc 2 401 5 view LVU986
	.loc 2 401 5 view LVU987
	.loc 2 401 5 view LVU988
	.loc 2 402 5 view LVU989
	.loc 2 403 5 view LVU990
	movl	%ebx, %eax
	.loc 2 403 5 is_stmt 0 discriminator 1 view LVU991
	movl	%ebx, %ecx
	.loc 2 405 5 view LVU992
	addl	$8, %ebx
	.loc 2 403 5 view LVU993
	shrl	$3, %eax
	.loc 2 403 5 discriminator 1 view LVU994
	andl	$7, %ecx
	movl	(%esi,%eax), %eax
	bswap	%eax
LVL196:
	.loc 2 404 5 is_stmt 1 view LVU995
LBB715:
LBI715:
	.loc 4 124 24 view LVU996
LBB716:
	.loc 4 125 5 view LVU997
LBE716:
LBE715:
	.loc 2 403 5 is_stmt 0 discriminator 1 view LVU998
	sall	%cl, %eax
LBB719:
LBB717:
	.loc 4 125 5 view LVU999
	movl	%eax, %esi
	.loc 4 125 5 view LVU1000
LBE717:
LBE719:
LBE714:
LBE713:
LBB722:
LBB708:
	.loc 5 171 14 view LVU1001
	movl	68(%esp), %eax
LBE708:
LBE722:
LBB723:
LBB721:
LBB720:
LBB718:
	.loc 4 125 5 view LVU1002
/APP
 # 125 "./libavcodec/x86/mathops.h" 1
	shrl $-8, %esi
	
 # 0 "" 2
LVL197:
	.loc 4 129 5 is_stmt 1 view LVU1003
	.loc 4 129 5 is_stmt 0 view LVU1004
/NO_APP
LBE718:
LBE720:
	.loc 2 405 5 is_stmt 1 view LVU1005
	.loc 2 406 5 view LVU1006
	.loc 2 405 5 is_stmt 0 view LVU1007
	cmpl	%edi, %ebx
	cmova	%edi, %ebx
LVL198:
	.loc 2 408 5 is_stmt 1 view LVU1008
	.loc 2 409 5 view LVU1009
	.loc 2 409 5 is_stmt 0 view LVU1010
LBE721:
LBE723:
	.loc 6 143 5 is_stmt 1 view LVU1011
LBB724:
LBI705:
	.loc 5 164 20 view LVU1012
LBB709:
	.loc 5 166 5 view LVU1013
	.loc 5 167 5 view LVU1014
	.loc 5 169 5 view LVU1015
	.loc 5 171 5 view LVU1016
	.loc 5 172 5 view LVU1017
	.loc 5 190 5 view LVU1018
	.loc 5 190 8 is_stmt 0 view LVU1019
	cmpl	$8, %ebp
	jle	L39
	.loc 5 191 9 is_stmt 1 view LVU1020
	.loc 5 191 32 is_stmt 0 view LVU1021
	sall	$8, %eax
LVL199:
	.loc 5 192 20 view LVU1022
	subl	$8, %ebp
LVL200:
	.loc 5 191 21 view LVU1023
	orl	%esi, %eax
LVL201:
	.loc 5 192 9 is_stmt 1 view LVU1024
L40:
	.loc 5 208 5 view LVU1025
	.loc 5 208 17 is_stmt 0 view LVU1026
	movl	%eax, 68(%esp)
	.loc 5 209 5 is_stmt 1 view LVU1027
	.loc 5 209 17 is_stmt 0 view LVU1028
	movl	%ebp, 72(%esp)
LVL202:
	.loc 5 209 17 view LVU1029
LBE709:
LBE724:
	.loc 6 144 5 is_stmt 1 view LVU1030
	.loc 6 144 5 is_stmt 0 view LVU1031
LBE728:
LBE734:
	.loc 6 171 18 discriminator 1 view LVU1032
	movl	%esi, 44(%esp)
LVL203:
	.loc 6 172 5 is_stmt 1 view LVU1033
	.loc 6 172 25 discriminator 1 view LVU1034
	testl	%esi, %esi
	jg	L48
LVL204:
	.loc 6 172 25 is_stmt 0 discriminator 1 view LVU1035
	jmp	L43
LVL205:
	.p2align 4,,10
	.p2align 3
L72:
LBB735:
LBB736:
LBB737:
LBB738:
	.loc 5 191 9 is_stmt 1 view LVU1036
	.loc 5 191 32 is_stmt 0 view LVU1037
	sall	$8, %eax
	.loc 5 192 20 view LVU1038
	subl	$8, %ebp
	.loc 5 191 21 view LVU1039
	orl	%esi, %eax
LVL206:
	.loc 5 192 9 is_stmt 1 view LVU1040
	.loc 5 208 5 view LVU1041
LBE738:
LBE737:
LBE736:
LBE735:
	.loc 6 172 25 is_stmt 0 discriminator 1 view LVU1042
	subl	$1, 44(%esp)
LVL207:
LBB757:
LBB753:
LBB743:
LBB739:
	.loc 5 208 17 view LVU1043
	movl	%eax, 68(%esp)
	.loc 5 209 5 is_stmt 1 view LVU1044
	.loc 5 209 17 is_stmt 0 view LVU1045
	movl	%ebp, 72(%esp)
LVL208:
	.loc 5 209 17 view LVU1046
LBE739:
LBE743:
	.loc 6 144 5 is_stmt 1 view LVU1047
	.loc 6 144 5 is_stmt 0 view LVU1048
LBE753:
LBE757:
	.loc 6 172 42 is_stmt 1 discriminator 2 view LVU1049
	.loc 6 172 25 discriminator 1 view LVU1050
	je	L43
LVL209:
L48:
	.loc 6 173 9 view LVU1051
LBB758:
LBI735:
	.loc 6 138 38 view LVU1052
LBB754:
	.loc 6 142 5 view LVU1053
LBB744:
LBI744:
	.loc 2 379 28 view LVU1054
LBB745:
	.loc 2 381 5 view LVU1055
	.loc 2 401 5 view LVU1056
	.loc 2 401 5 view LVU1057
	.loc 2 401 5 view LVU1058
	.loc 2 402 5 view LVU1059
	.loc 2 403 5 view LVU1060
	movl	%ebx, %ecx
	movl	36(%esp), %esi
	shrl	$3, %ecx
	movl	(%esi,%ecx), %esi
	.loc 2 403 5 is_stmt 0 discriminator 1 view LVU1061
	movl	%ebx, %ecx
	.loc 2 405 5 view LVU1062
	addl	$8, %ebx
LVL210:
	.loc 2 403 5 discriminator 1 view LVU1063
	andl	$7, %ecx
LVL211:
	.loc 2 403 5 discriminator 1 view LVU1064
	bswap	%esi
	.loc 2 404 5 is_stmt 1 view LVU1065
LVL212:
LBB746:
LBI746:
	.loc 4 124 24 view LVU1066
LBB747:
	.loc 4 125 5 view LVU1067
LBE747:
LBE746:
	.loc 2 403 5 is_stmt 0 discriminator 1 view LVU1068
	sall	%cl, %esi
LBB749:
LBB748:
	.loc 4 125 5 view LVU1069
/APP
 # 125 "./libavcodec/x86/mathops.h" 1
	shrl $-8, %esi
	
 # 0 "" 2
LVL213:
	.loc 4 129 5 is_stmt 1 view LVU1070
	.loc 4 129 5 is_stmt 0 view LVU1071
/NO_APP
LBE748:
LBE749:
	.loc 2 405 5 is_stmt 1 view LVU1072
	.loc 2 406 5 view LVU1073
	.loc 2 405 5 is_stmt 0 view LVU1074
	cmpl	%ebx, %edi
	cmovbe	%edi, %ebx
LVL214:
	.loc 2 408 5 is_stmt 1 view LVU1075
	.loc 2 409 5 view LVU1076
	.loc 2 409 5 is_stmt 0 view LVU1077
LBE745:
LBE744:
	.loc 6 143 5 is_stmt 1 view LVU1078
LBB750:
LBI737:
	.loc 5 164 20 view LVU1079
LBB740:
	.loc 5 166 5 view LVU1080
	.loc 5 167 5 view LVU1081
	.loc 5 169 5 view LVU1082
	.loc 5 171 5 view LVU1083
	.loc 5 172 5 view LVU1084
	.loc 5 190 5 view LVU1085
	.loc 5 190 8 is_stmt 0 view LVU1086
	cmpl	$8, %ebp
	jg	L72
	.loc 5 194 9 is_stmt 1 view LVU1087
LVL215:
	.loc 5 195 9 view LVU1088
	.loc 5 196 9 view LVU1089
	.loc 5 196 28 is_stmt 0 view LVU1090
	movl	84(%esp), %ecx
	subl	%edx, %ecx
	.loc 5 196 12 view LVU1091
	cmpl	$3, %ecx
	jle	L46
	.loc 5 197 13 is_stmt 1 view LVU1092
LVL216:
	.loc 5 194 19 is_stmt 0 view LVU1093
	movl	%ebp, %ecx
	sall	%cl, %eax
LVL217:
	.loc 5 195 35 view LVU1094
	movl	$8, %ecx
	.loc 5 194 19 view LVU1095
	movl	%eax, 48(%esp)
	.loc 5 195 35 view LVU1096
	subl	%ebp, %ecx
	.loc 5 195 29 view LVU1097
	movl	%esi, %eax
	shrl	%cl, %eax
	movl	%eax, %ecx
	.loc 5 195 20 view LVU1098
	movl	48(%esp), %eax
	orl	%ecx, %eax
	bswap	%eax
LVL218:
	.loc 5 197 13 discriminator 1 view LVU1099
	movl	%eax, (%edx)
LVL219:
	.loc 5 198 13 is_stmt 1 view LVU1100
	.loc 5 198 24 is_stmt 0 view LVU1101
	movl	80(%esp), %eax
	leal	4(%eax), %edx
	movl	%edx, 80(%esp)
L47:
	.loc 5 201 13 is_stmt 1 view LVU1102
	.loc 5 203 9 view LVU1103
	.loc 5 203 20 is_stmt 0 view LVU1104
	addl	$24, %ebp
LVL220:
	.loc 5 204 9 is_stmt 1 view LVU1105
	.loc 5 204 9 is_stmt 0 view LVU1106
LBE740:
LBE750:
LBE754:
LBE758:
	.loc 6 172 25 discriminator 1 view LVU1107
	subl	$1, 44(%esp)
LVL221:
LBB759:
LBB755:
LBB751:
LBB741:
	.loc 5 204 21 view LVU1108
	movl	%esi, %eax
	.loc 5 208 5 is_stmt 1 view LVU1109
	.loc 5 208 17 is_stmt 0 view LVU1110
	movl	%eax, 68(%esp)
	.loc 5 209 5 is_stmt 1 view LVU1111
	.loc 5 209 17 is_stmt 0 view LVU1112
	movl	%ebp, 72(%esp)
LVL222:
	.loc 5 209 17 view LVU1113
LBE741:
LBE751:
	.loc 6 144 5 is_stmt 1 view LVU1114
	.loc 6 144 5 is_stmt 0 view LVU1115
LBE755:
LBE759:
	.loc 6 172 42 is_stmt 1 discriminator 2 view LVU1116
	.loc 6 172 25 discriminator 1 view LVU1117
	jne	L48
LVL223:
L43:
	.loc 6 175 5 view LVU1118
LBB760:
LBI760:
	.loc 5 67 19 view LVU1119
LBB761:
	.loc 5 69 5 view LVU1120
	.loc 5 69 24 is_stmt 0 view LVU1121
	movl	%edx, %ecx
	subl	76(%esp), %ecx
LBE761:
LBE760:
LBE416:
LBE415:
	.loc 1 88 24 discriminator 1 view LVU1122
	movl	40(%esp), %edi
LBB776:
LBB773:
LBB765:
LBB762:
	.loc 5 69 38 view LVU1123
	leal	32(,%ecx,8), %ebx
LVL224:
	.loc 5 69 43 view LVU1124
	subl	%ebp, %ebx
LBE762:
LBE765:
LBE773:
LBE776:
	.loc 1 88 59 discriminator 1 view LVU1125
	leal	7(%ebx), %ecx
	cmovns	%ebx, %ecx
	sarl	$3, %ecx
	.loc 1 88 24 discriminator 1 view LVU1126
	movl	%ecx, 20(%edi)
	.loc 1 89 9 is_stmt 1 view LVU1127
LVL225:
LBB777:
LBI777:
	.loc 5 101 20 view LVU1128
LBB778:
	.loc 5 104 5 view LVU1129
	.loc 5 104 8 is_stmt 0 view LVU1130
	cmpl	$31, %ebp
	jg	L19
	.loc 5 105 9 is_stmt 1 view LVU1131
	.loc 5 105 20 is_stmt 0 view LVU1132
	movl	%ebp, %ecx
	sall	%cl, %eax
	movl	%eax, 68(%esp)
	.loc 5 107 24 is_stmt 1 view LVU1133
	jmp	L50
	.p2align 6
	.p2align 4,,10
	.p2align 3
L74:
	.loc 5 108 9 is_stmt 0 view LVU1134
	movl	80(%esp), %edx
L50:
	.loc 5 108 9 is_stmt 1 view LVU1135
	.loc 5 108 9 view LVU1136
	cmpl	84(%esp), %edx
	jnb	L73
	.loc 5 108 9 discriminator 2 view LVU1137
	.loc 5 113 9 view LVU1138
	.loc 5 113 20 is_stmt 0 view LVU1139
	leal	1(%edx), %ecx
	.loc 5 113 36 view LVU1140
	shrl	$24, %eax
	.loc 5 113 20 view LVU1141
	movl	%ecx, 80(%esp)
	.loc 5 113 23 view LVU1142
	movb	%al, (%edx)
	.loc 5 114 9 is_stmt 1 view LVU1143
	.loc 5 114 21 is_stmt 0 view LVU1144
	movl	68(%esp), %eax
	.loc 5 116 22 view LVU1145
	movl	72(%esp), %esi
	.loc 5 114 21 view LVU1146
	sall	$8, %eax
	.loc 5 116 22 view LVU1147
	leal	8(%esi), %edx
	.loc 5 114 21 view LVU1148
	movl	%eax, 68(%esp)
	.loc 5 116 9 is_stmt 1 view LVU1149
	.loc 5 116 22 is_stmt 0 view LVU1150
	movl	%edx, 72(%esp)
	.loc 5 107 24 is_stmt 1 view LVU1151
	cmpl	$31, %edx
	jle	L74
	jmp	L19
LVL226:
	.p2align 4,,10
	.p2align 3
L46:
	.loc 5 107 24 is_stmt 0 view LVU1152
LBE778:
LBE777:
LBB782:
LBB774:
LBB766:
LBB756:
LBB752:
LBB742:
	.loc 5 200 13 is_stmt 1 view LVU1153
	movl	$LC6, 8(%esp)
	movl	$16, 4(%esp)
	movl	$0, (%esp)
	call	_av_log
LVL227:
	.loc 5 200 13 is_stmt 0 view LVU1154
LBE742:
LBE752:
LBE756:
LBE766:
LBB767:
LBB763:
	.loc 5 69 14 view LVU1155
	movl	80(%esp), %edx
	jmp	L47
LVL228:
	.p2align 4,,10
	.p2align 3
L39:
	.loc 5 69 14 view LVU1156
LBE763:
LBE767:
LBB768:
LBB729:
LBB725:
LBB710:
	.loc 5 194 9 is_stmt 1 view LVU1157
	.loc 5 195 9 view LVU1158
	.loc 5 196 9 view LVU1159
	.loc 5 196 28 is_stmt 0 view LVU1160
	movl	84(%esp), %ecx
	subl	%edx, %ecx
	.loc 5 196 12 view LVU1161
	cmpl	$3, %ecx
	jle	L41
	.loc 5 197 13 is_stmt 1 view LVU1162
LVL229:
	.loc 5 194 19 is_stmt 0 view LVU1163
	movl	%ebp, %ecx
	sall	%cl, %eax
LVL230:
	.loc 5 195 35 view LVU1164
	movl	$8, %ecx
	.loc 5 194 19 view LVU1165
	movl	%eax, 44(%esp)
	.loc 5 195 35 view LVU1166
	subl	%ebp, %ecx
LVL231:
	.loc 5 195 29 view LVU1167
	movl	%esi, %eax
	shrl	%cl, %eax
	movl	%eax, %ecx
LVL232:
	.loc 5 195 20 view LVU1168
	movl	44(%esp), %eax
	orl	%ecx, %eax
	bswap	%eax
LVL233:
	.loc 5 197 13 discriminator 1 view LVU1169
	movl	%eax, (%edx)
LVL234:
	.loc 5 198 13 is_stmt 1 view LVU1170
	.loc 5 198 24 is_stmt 0 view LVU1171
	movl	80(%esp), %eax
	leal	4(%eax), %edx
	movl	%edx, 80(%esp)
L42:
	.loc 5 201 13 is_stmt 1 view LVU1172
	.loc 5 203 9 view LVU1173
	.loc 5 203 20 is_stmt 0 view LVU1174
	addl	$24, %ebp
LVL235:
	.loc 5 204 9 is_stmt 1 view LVU1175
	.loc 5 204 21 is_stmt 0 view LVU1176
	movl	%esi, %eax
	jmp	L40
LVL236:
L71:
	.loc 5 204 21 view LVU1177
LBE710:
LBE725:
LBE729:
LBE768:
LBB769:
LBB648:
LBB646:
LBB643:
	.loc 5 191 9 is_stmt 1 view LVU1178
	.loc 5 191 32 is_stmt 0 view LVU1179
	movl	%edx, %ecx
	sall	%cl, %eax
	.loc 5 191 21 view LVU1180
	orl	%eax, %ebp
LVL237:
	.loc 5 192 9 is_stmt 1 view LVU1181
	.loc 5 192 20 is_stmt 0 view LVU1182
	movl	%esi, %eax
	subl	%edx, %eax
LVL238:
	.loc 5 192 20 view LVU1183
	jmp	L35
LVL239:
L41:
	.loc 5 192 20 view LVU1184
LBE643:
LBE646:
LBE648:
LBE769:
LBB770:
LBB730:
LBB726:
LBB711:
	.loc 5 200 13 is_stmt 1 view LVU1185
	movl	$LC6, 8(%esp)
	movl	$16, 4(%esp)
	movl	$0, (%esp)
	call	_av_log
LVL240:
	.loc 5 200 13 is_stmt 0 view LVU1186
LBE711:
LBE726:
LBE730:
LBE770:
LBB771:
LBB764:
	.loc 5 69 14 view LVU1187
	movl	80(%esp), %edx
	jmp	L42
LVL241:
L51:
	.loc 5 69 14 view LVU1188
LBE764:
LBE771:
LBE774:
LBE782:
LBB783:
LBB375:
LBB374:
	.loc 2 630 21 view LVU1189
	movl	$0, 36(%esp)
	movl	$8, %edi
	jmp	L11
LVL242:
L36:
	.loc 2 630 21 view LVU1190
LBE374:
LBE375:
LBE783:
LBB784:
LBB775:
LBB772:
LBB649:
LBB647:
LBB644:
	.loc 5 200 13 is_stmt 1 view LVU1191
	movl	$LC6, 8(%esp)
	movl	$16, 4(%esp)
	movl	$0, (%esp)
	call	_av_log
LVL243:
	.loc 5 200 13 is_stmt 0 view LVU1192
	jmp	L37
LVL244:
L63:
	.loc 5 200 13 view LVU1193
LBE644:
LBE647:
LBE649:
LBE772:
LBE775:
LBE784:
	.loc 1 77 9 is_stmt 1 view LVU1194
	movl	$LC4, 8(%esp)
	movl	$16, 4(%esp)
	movl	%ebx, (%esp)
	call	_av_log
LVL245:
	.loc 1 78 9 view LVU1195
L14:
	.loc 1 66 16 is_stmt 0 view LVU1196
	movl	$-1094995529, %eax
	jmp	L10
LVL246:
L62:
	.loc 1 73 9 is_stmt 1 view LVU1197
	movl	$LC3, 8(%esp)
	movl	$16, 4(%esp)
	movl	%ebx, (%esp)
	call	_av_log
LVL247:
	.loc 1 74 9 view LVU1198
	.loc 1 74 16 is_stmt 0 view LVU1199
	jmp	L14
LVL248:
L61:
	.loc 1 69 9 is_stmt 1 view LVU1200
	movl	$LC2, 8(%esp)
	movl	$16, 4(%esp)
	movl	%ebx, (%esp)
	call	_av_log
LVL249:
	.loc 1 70 9 view LVU1201
	.loc 1 70 16 is_stmt 0 view LVU1202
	jmp	L14
L60:
	.loc 1 65 9 is_stmt 1 view LVU1203
	movl	44(%esp), %eax
	movl	$LC1, 8(%esp)
	movl	$16, 4(%esp)
	movl	%eax, 12(%esp)
	movl	%ebx, (%esp)
	call	_av_log
LVL250:
	.loc 1 66 9 view LVU1204
	.loc 1 66 16 is_stmt 0 view LVU1205
	jmp	L14
LVL251:
L64:
	.loc 1 81 9 is_stmt 1 view LVU1206
	movl	$LC5, 8(%esp)
	movl	$16, 4(%esp)
	movl	%ebx, (%esp)
	call	_av_log
LVL252:
	.loc 1 82 9 view LVU1207
	.loc 1 82 16 is_stmt 0 view LVU1208
	jmp	L14
LVL253:
L73:
LBB785:
LBB781:
LBB779:
LBI779:
	.loc 5 101 20 is_stmt 1 view LVU1209
LBB780:
	.loc 5 108 9 discriminator 1 view LVU1210
	movl	$108, 20(%esp)
	movl	$LC7, 16(%esp)
	movl	$LC8, 12(%esp)
	movl	$LC9, 8(%esp)
	movl	$0, 4(%esp)
	movl	$0, (%esp)
	call	_av_log
LVL254:
	.loc 5 108 9 discriminator 1 view LVU1211
	call	_abort
LVL255:
LBE780:
LBE779:
LBE781:
LBE785:
	.cfi_endproc
LFE755:
	.section .rdata,"dr"
	.align 4
LC10:
	.ascii "Only AAC streams can be muxed by the ADTS muxer\12\0"
	.text
	.p2align 4
	.def	_adts_init;	.scl	3;	.type	32;	.endef
_adts_init:
LVL256:
LFB756:
	.loc 1 98 1 view -0
	.cfi_startproc
	.loc 1 99 5 view LVU1213
	.loc 1 98 1 is_stmt 0 view LVU1214
	pushl	%ebx
	.cfi_def_cfa_offset 8
	.cfi_offset 3, -8
	subl	$24, %esp
	.cfi_def_cfa_offset 32
	.loc 1 98 1 view LVU1215
	movl	32(%esp), %ebx
LVL257:
	.loc 1 100 5 is_stmt 1 view LVU1216
	.loc 1 100 40 is_stmt 0 view LVU1217
	movl	28(%ebx), %eax
	.loc 1 100 24 view LVU1218
	movl	(%eax), %eax
	movl	176(%eax), %eax
LVL258:
	.loc 1 102 5 is_stmt 1 view LVU1219
	.loc 1 102 8 is_stmt 0 view LVU1220
	cmpl	$86018, 4(%eax)
	jne	L80
	.loc 1 106 5 is_stmt 1 view LVU1221
	.loc 1 106 12 is_stmt 0 view LVU1222
	movl	16(%eax), %ecx
	.loc 1 110 12 view LVU1223
	xorl	%edx, %edx
	.loc 1 106 8 view LVU1224
	testl	%ecx, %ecx
	jg	L81
LVL259:
L75:
	.loc 1 111 1 view LVU1225
	addl	$24, %esp
	.cfi_remember_state
	.cfi_def_cfa_offset 8
	movl	%edx, %eax
	popl	%ebx
	.cfi_restore 3
	.cfi_def_cfa_offset 4
	ret
LVL260:
	.p2align 4,,10
	.p2align 3
L81:
	.cfi_restore_state
	.loc 1 107 9 is_stmt 1 view LVU1226
	.loc 1 107 16 is_stmt 0 view LVU1227
	movl	12(%eax), %eax
LVL261:
	.loc 1 107 16 view LVU1228
	movl	12(%ebx), %edx
	movl	%ecx, 32(%esp)
LVL262:
	.loc 1 111 1 view LVU1229
	addl	$24, %esp
	.cfi_remember_state
	.cfi_def_cfa_offset 8
	.loc 1 107 16 view LVU1230
	movl	%eax, %ecx
	movl	%ebx, %eax
	.loc 1 111 1 view LVU1231
	popl	%ebx
	.cfi_restore 3
	.cfi_def_cfa_offset 4
	.loc 1 107 16 view LVU1232
	jmp	_adts_decode_extradata
LVL263:
L80:
	.cfi_restore_state
LBB788:
LBI788:
	.loc 1 97 12 is_stmt 1 view LVU1233
LBB789:
	.loc 1 103 9 view LVU1234
	movl	$LC10, 8(%esp)
LVL264:
	.loc 1 103 9 is_stmt 0 view LVU1235
	movl	$16, 4(%esp)
	movl	%ebx, (%esp)
	call	_av_log
LVL265:
	.loc 1 104 9 is_stmt 1 view LVU1236
	.loc 1 103 9 is_stmt 0 view LVU1237
	movl	$-22, %edx
	jmp	L75
LBE789:
LBE788:
	.cfi_endproc
LFE756:
	.section .rdata,"dr"
	.align 4
LC11:
	.ascii "ADTS frame size too large: %u (max %d)\12\0"
	.text
	.p2align 4
	.def	_adts_write_packet;	.scl	3;	.type	32;	.endef
_adts_write_packet:
LVL266:
LFB759:
	.loc 1 162 1 is_stmt 1 view -0
	.cfi_startproc
	.loc 1 163 5 view LVU1239
	.loc 1 162 1 is_stmt 0 view LVU1240
	pushl	%ebp
	.cfi_def_cfa_offset 8
	.cfi_offset 5, -8
	pushl	%edi
	.cfi_def_cfa_offset 12
	.cfi_offset 7, -12
	pushl	%esi
	.cfi_def_cfa_offset 16
	.cfi_offset 6, -16
	pushl	%ebx
	.cfi_def_cfa_offset 20
	.cfi_offset 3, -20
	subl	$76, %esp
	.cfi_def_cfa_offset 96
	.loc 1 162 1 view LVU1241
	movl	100(%esp), %ebx
	movl	96(%esp), %esi
LVL267:
	.loc 1 164 5 is_stmt 1 view LVU1242
	.loc 1 165 5 view LVU1243
	.loc 1 166 5 view LVU1244
	.loc 1 168 5 view LVU1245
	.loc 1 168 13 is_stmt 0 view LVU1246
	movl	28(%ebx), %eax
	.loc 1 168 8 view LVU1247
	testl	%eax, %eax
	je	L83
	.loc 1 164 40 view LVU1248
	movl	28(%esi), %ecx
	.loc 1 163 18 view LVU1249
	movl	12(%esi), %ebp
	.loc 1 165 18 view LVU1250
	movl	16(%esi), %edi
	.loc 1 170 5 is_stmt 1 view LVU1251
	.loc 1 164 24 is_stmt 0 view LVU1252
	movl	(%ecx), %ecx
	movl	176(%ecx), %edx
	.loc 1 170 8 view LVU1253
	movl	16(%edx), %ecx
	.loc 1 164 24 view LVU1254
	movl	%edx, 40(%esp)
	.loc 1 170 8 view LVU1255
	testl	%ecx, %ecx
	je	L99
	.loc 1 186 5 is_stmt 1 view LVU1256
	.loc 1 186 8 is_stmt 0 view LVU1257
	movl	4(%ebp), %edx
	testl	%edx, %edx
	je	L88
LVL268:
L102:
LBB860:
	.loc 1 187 9 is_stmt 1 view LVU1258
LBB861:
LBI861:
	.loc 1 123 12 view LVU1259
LBB862:
	.loc 1 126 5 view LVU1260
	.loc 1 128 5 view LVU1261
	.loc 1 128 14 is_stmt 0 view LVU1262
	movl	20(%ebp), %ecx
	leal	7(%eax,%ecx), %ecx
LVL269:
	.loc 1 129 5 is_stmt 1 view LVU1263
	.loc 1 129 8 is_stmt 0 view LVU1264
	cmpl	$8191, %ecx
	ja	L100
	.loc 1 135 5 is_stmt 1 view LVU1265
	.loc 1 138 5 view LVU1266
	.loc 1 139 5 view LVU1267
	.loc 1 140 5 view LVU1268
	.loc 1 141 5 view LVU1269
	.loc 1 142 5 view LVU1270
	.loc 1 143 5 view LVU1271
	.loc 1 144 5 view LVU1272
	.loc 1 145 5 view LVU1273
LVL270:
LBB863:
LBI863:
	.loc 5 164 20 view LVU1274
LBB864:
	.loc 5 166 5 view LVU1275
	.loc 5 167 5 view LVU1276
	.loc 5 169 5 view LVU1277
	.loc 5 171 5 view LVU1278
	.loc 5 172 5 view LVU1279
	.loc 5 190 5 view LVU1280
	.loc 5 191 9 view LVU1281
	.loc 5 192 9 view LVU1282
	.loc 5 208 5 view LVU1283
	.loc 5 209 5 view LVU1284
	.loc 5 209 5 is_stmt 0 view LVU1285
LBE864:
LBE863:
	.loc 1 146 5 is_stmt 1 view LVU1286
	.loc 1 147 5 view LVU1287
	.loc 1 150 5 view LVU1288
	.loc 1 151 5 view LVU1289
	.loc 1 152 5 view LVU1290
LBB867:
LBI867:
	.loc 5 164 20 view LVU1291
LBB868:
	.loc 5 166 5 view LVU1292
	.loc 5 167 5 view LVU1293
	.loc 5 169 5 view LVU1294
	.loc 5 171 5 view LVU1295
	.loc 5 172 5 view LVU1296
	.loc 5 190 5 view LVU1297
	.loc 5 194 9 view LVU1298
LBE868:
LBE867:
LBB878:
LBB865:
	.loc 5 191 32 is_stmt 0 view LVU1299
	movl	8(%ebp), %eax
LBE865:
LBE878:
LBB879:
LBB873:
	.loc 5 195 29 view LVU1300
	movl	%ecx, %esi
LBE873:
LBE879:
LBB880:
LBB881:
	.loc 5 105 20 view LVU1301
	sall	$21, %ecx
LVL271:
	.loc 5 105 20 view LVU1302
LBE881:
LBE880:
LBB884:
LBB874:
	.loc 5 195 29 view LVU1303
	shrl	$11, %esi
LVL272:
	.loc 5 195 29 view LVU1304
LBE874:
LBE884:
LBB885:
LBB866:
	.loc 5 191 32 view LVU1305
	sall	$4, %eax
	orl	12(%ebp), %eax
LVL273:
	.loc 5 191 32 view LVU1306
	sall	$4, %eax
LVL274:
	.loc 5 191 32 view LVU1307
	orl	$67093504, %eax
	.loc 5 191 21 view LVU1308
	orl	16(%ebp), %eax
LBE866:
LBE885:
LBE862:
LBE861:
	.loc 1 191 9 view LVU1309
	movl	$7, 8(%esp)
LVL275:
LBB894:
LBB891:
LBB886:
LBB875:
	.loc 5 194 19 view LVU1310
	sall	$6, %eax
LVL276:
	.loc 5 195 9 is_stmt 1 view LVU1311
	.loc 5 196 9 view LVU1312
	.loc 5 197 13 view LVU1313
LBB869:
LBI869:
	.file 7 "./libavutil/bswap.h"
	.loc 7 66 43 view LVU1314
LBB870:
	.loc 7 68 5 view LVU1315
LBE870:
LBE869:
LBE875:
LBE886:
LBE891:
LBE894:
	.loc 1 191 9 is_stmt 0 view LVU1316
	movl	%edi, (%esp)
LBB895:
LBB892:
LBB887:
LBB876:
	.loc 5 195 20 view LVU1317
	orl	%esi, %eax
LBE876:
LBE887:
LBB888:
LBB882:
	.loc 5 113 23 view LVU1318
	movb	$-4, 62(%esp)
	bswap	%eax
LBE882:
LBE888:
LBB889:
LBB877:
LBB872:
LBB871:
	.loc 7 68 12 view LVU1319
	orb	$-1, %al
	movl	%eax, 56(%esp)
LBE871:
LBE872:
	.loc 5 198 13 is_stmt 1 view LVU1320
LVL277:
	.loc 5 201 13 view LVU1321
	.loc 5 203 9 view LVU1322
	.loc 5 204 9 view LVU1323
	.loc 5 208 5 view LVU1324
	.loc 5 209 5 view LVU1325
	.loc 5 209 5 is_stmt 0 view LVU1326
LBE877:
LBE889:
	.loc 1 153 5 is_stmt 1 view LVU1327
	.loc 1 154 5 view LVU1328
	.loc 1 156 5 view LVU1329
LBB890:
LBI880:
	.loc 5 101 20 view LVU1330
LBB883:
	.loc 5 104 5 view LVU1331
	.loc 5 105 9 view LVU1332
	.loc 5 105 20 is_stmt 0 view LVU1333
	movl	%ecx, %eax
	.loc 5 113 36 view LVU1334
	shrl	$24, %ecx
	.loc 5 105 20 view LVU1335
	orl	$2096128, %eax
LVL278:
	.loc 5 107 24 is_stmt 1 view LVU1336
	.loc 5 108 9 view LVU1337
	.loc 5 108 9 view LVU1338
	.loc 5 108 9 discriminator 2 view LVU1339
	.loc 5 113 9 view LVU1340
	.loc 5 113 23 is_stmt 0 view LVU1341
	movb	%cl, 60(%esp)
	.loc 5 114 9 is_stmt 1 view LVU1342
LVL279:
	.loc 5 116 9 view LVU1343
	.loc 5 107 24 view LVU1344
	.loc 5 108 9 view LVU1345
	.loc 5 108 9 view LVU1346
	.loc 5 108 9 discriminator 2 view LVU1347
	.loc 5 113 9 view LVU1348
	.loc 5 114 21 is_stmt 0 view LVU1349
	sall	$8, %eax
LVL280:
	.loc 5 113 36 view LVU1350
	shrl	$24, %eax
LVL281:
	.loc 5 113 23 view LVU1351
	movb	%al, 61(%esp)
	.loc 5 114 9 is_stmt 1 view LVU1352
LVL282:
	.loc 5 116 9 view LVU1353
	.loc 5 107 24 view LVU1354
	.loc 5 108 9 view LVU1355
	.loc 5 108 9 view LVU1356
	.loc 5 108 9 discriminator 2 view LVU1357
	.loc 5 113 9 view LVU1358
	.loc 5 114 9 view LVU1359
	.loc 5 116 9 view LVU1360
	.loc 5 107 24 view LVU1361
	.loc 5 118 5 view LVU1362
	.loc 5 119 5 view LVU1363
	.loc 5 119 5 is_stmt 0 view LVU1364
LBE883:
LBE890:
	.loc 1 158 5 is_stmt 1 view LVU1365
	.loc 1 158 5 is_stmt 0 view LVU1366
LBE892:
LBE895:
	.loc 1 189 9 is_stmt 1 view LVU1367
	.loc 1 191 9 view LVU1368
	leal	56(%esp), %eax
	movl	%eax, 4(%esp)
	call	_avio_write
LVL283:
	.loc 1 192 9 view LVU1369
	.loc 1 192 17 is_stmt 0 view LVU1370
	movl	20(%ebp), %eax
	.loc 1 192 12 view LVU1371
	testl	%eax, %eax
	jne	L90
L98:
LBE860:
	.loc 1 197 5 view LVU1372
	movl	28(%ebx), %eax
LVL284:
L88:
	.loc 1 197 5 is_stmt 1 view LVU1373
	movl	%eax, 8(%esp)
	movl	24(%ebx), %eax
	movl	%edi, (%esp)
	movl	%eax, 4(%esp)
	call	_avio_write
LVL285:
	.loc 1 199 5 view LVU1374
L83:
	.loc 1 169 16 is_stmt 0 view LVU1375
	xorl	%eax, %eax
L82:
	.loc 1 200 1 view LVU1376
	addl	$76, %esp
	.cfi_remember_state
	.cfi_def_cfa_offset 20
	popl	%ebx
	.cfi_restore 3
	.cfi_def_cfa_offset 16
	popl	%esi
	.cfi_restore 6
	.cfi_def_cfa_offset 12
	popl	%edi
	.cfi_restore 7
	.cfi_def_cfa_offset 8
	popl	%ebp
	.cfi_restore 5
	.cfi_def_cfa_offset 4
	ret
LVL286:
	.p2align 4,,10
	.p2align 3
L99:
	.cfi_restore_state
LBB897:
	.loc 1 171 9 is_stmt 1 view LVU1377
	.loc 1 172 9 view LVU1378
	.loc 1 174 21 is_stmt 0 view LVU1379
	leal	56(%esp), %eax
	movl	$1, 4(%esp)
LVL287:
	.loc 1 174 21 view LVU1380
	movl	%eax, 8(%esp)
	movl	%ebx, (%esp)
	.loc 1 172 13 view LVU1381
	movl	$0, 56(%esp)
	.loc 1 174 9 is_stmt 1 view LVU1382
	.loc 1 174 21 is_stmt 0 view LVU1383
	call	_av_packet_get_side_data
LVL288:
	movl	%eax, %ecx
LVL289:
	.loc 1 176 9 is_stmt 1 view LVU1384
	.loc 1 176 13 is_stmt 0 view LVU1385
	movl	56(%esp), %eax
LVL290:
	.loc 1 176 12 view LVU1386
	testl	%eax, %eax
	jne	L101
LVL291:
L85:
	.loc 1 176 12 view LVU1387
LBE897:
	.loc 1 186 8 view LVU1388
	movl	4(%ebp), %edx
LBB898:
	.loc 1 187 19 view LVU1389
	movl	28(%ebx), %eax
LBE898:
	.loc 1 186 5 is_stmt 1 view LVU1390
	.loc 1 186 8 is_stmt 0 view LVU1391
	testl	%edx, %edx
	je	L88
	jmp	L102
LVL292:
	.p2align 4,,10
	.p2align 3
L101:
LBB899:
	.loc 1 177 13 is_stmt 1 view LVU1392
	.loc 1 177 19 is_stmt 0 view LVU1393
	movl	%eax, (%esp)
	movl	%ebp, %edx
	movl	%esi, %eax
	movl	%ecx, 44(%esp)
	call	_adts_decode_extradata
LVL293:
	.loc 1 178 13 is_stmt 1 view LVU1394
	.loc 1 178 16 is_stmt 0 view LVU1395
	testl	%eax, %eax
	jne	L82
	.loc 1 180 13 is_stmt 1 view LVU1396
	.loc 1 180 19 is_stmt 0 view LVU1397
	movl	56(%esp), %eax
LVL294:
	.loc 1 180 19 view LVU1398
	movl	40(%esp), %esi
	movl	%eax, 4(%esp)
	movl	%esi, (%esp)
	call	_ff_alloc_extradata
LVL295:
	.loc 1 181 13 is_stmt 1 view LVU1399
	.loc 1 181 16 is_stmt 0 view LVU1400
	testl	%eax, %eax
	js	L82
	.loc 1 183 13 is_stmt 1 view LVU1401
	movl	12(%esi), %eax
LVL296:
	.loc 1 183 13 is_stmt 0 view LVU1402
	movl	44(%esp), %ecx
	movl	56(%esp), %esi
	movl	%ecx, 4(%esp)
	movl	%esi, 8(%esp)
	movl	%eax, (%esp)
	call	_memcpy
LVL297:
	jmp	L85
LVL298:
	.p2align 4,,10
	.p2align 3
L90:
	.loc 1 183 13 view LVU1403
LBE899:
LBB900:
	.loc 1 193 13 is_stmt 1 view LVU1404
	movl	%eax, 8(%esp)
	.loc 1 193 32 is_stmt 0 view LVU1405
	leal	32(%ebp), %eax
	movl	%eax, 4(%esp)
	.loc 1 193 13 view LVU1406
	movl	%edi, (%esp)
	call	_avio_write
LVL299:
	.loc 1 194 13 is_stmt 1 view LVU1407
	.loc 1 194 28 is_stmt 0 view LVU1408
	movl	$0, 20(%ebp)
	jmp	L98
LVL300:
L100:
LBB896:
LBB893:
	.loc 1 130 9 is_stmt 1 view LVU1409
	movl	$8191, 16(%esp)
LVL301:
	.loc 1 130 9 is_stmt 0 view LVU1410
	movl	%ecx, 12(%esp)
	movl	$LC11, 8(%esp)
	movl	$16, 4(%esp)
	movl	$0, (%esp)
	call	_av_log
LVL302:
	.loc 1 132 9 is_stmt 1 view LVU1411
	.loc 1 132 9 is_stmt 0 view LVU1412
LBE893:
LBE896:
	.loc 1 189 9 is_stmt 1 view LVU1413
	.loc 1 190 20 is_stmt 0 view LVU1414
	movl	$-1094995529, %eax
	jmp	L82
LBE900:
	.cfi_endproc
LFE759:
	.globl	_ff_adts_muxer
	.section .rdata,"dr"
LC12:
	.ascii "adts\0"
	.align 4
LC13:
	.ascii "ADTS AAC (Advanced Audio Coding)\0"
LC14:
	.ascii "audio/aac\0"
LC15:
	.ascii "aac,adts\0"
	.data
	.align 32
_ff_adts_muxer:
	.long	LC12
	.long	LC13
	.long	LC14
	.long	LC15
	.long	86018
	.long	0
	.space 4
	.long	128
	.space 4
	.long	_adts_muxer_class
	.space 4
	.long	352
	.long	_adts_write_header
	.long	_adts_write_packet
	.long	_adts_write_trailer
	.space 36
	.long	_adts_init
	.space 8
	.section .rdata,"dr"
LC16:
	.ascii "ADTS muxer\0"
	.align 32
_adts_muxer_class:
	.long	LC16
	.long	_av_default_item_name
	.long	_options
	.long	3684196
	.space 32
LC17:
	.ascii "write_id3v2\0"
LC18:
	.ascii "Enable ID3v2 tag writing\0"
LC19:
	.ascii "write_apetag\0"
LC20:
	.ascii "Enable APE tag writing\0"
	.align 32
_options:
	.long	LC17
	.long	LC18
	.long	28
	.long	18
	.long	0
	.long	0
	.long	0
	.long	0
	.long	0
	.long	1072693248
	.long	1
	.space 4
	.long	LC19
	.long	LC20
	.long	24
	.long	18
	.long	0
	.long	0
	.long	0
	.long	0
	.long	0
	.long	1072693248
	.long	1
	.space 4
	.long	0
	.space 44
	.text
Letext0:
	.file 8 "D:/Soft/msys2/mingw32/include/corecrt.h"
	.file 9 "D:/Soft/msys2/mingw32/include/stdint.h"
	.file 10 "./libavutil/avutil.h"
	.file 11 "./libavutil/rational.h"
	.file 12 "./libavutil/log.h"
	.file 13 "./libavutil/opt.h"
	.file 14 "./libavutil/pixfmt.h"
	.file 15 "./libavutil/dict.h"
	.file 16 "./libavutil/samplefmt.h"
	.file 17 "./libavutil/buffer.h"
	.file 18 "./libavutil/frame.h"
	.file 19 "./libavcodec/codec_id.h"
	.file 20 "./libavcodec/codec_par.h"
	.file 21 "./libavcodec/packet.h"
	.file 22 "./libavcodec/bsf.h"
	.file 23 "./libavcodec/codec.h"
	.file 24 "./libavcodec/internal.h"
	.file 25 "./libavcodec/avcodec.h"
	.file 26 "./libavcodec/codec_desc.h"
	.file 27 "./libavutil/intreadwrite.h"
	.file 28 "libavformat/avio.h"
	.file 29 "libavformat/avformat.h"
	.file 30 "libavformat/internal.h"
	.file 31 "D:/Soft/msys2/mingw32/include/winnt.h"
	.file 32 "D:/Soft/msys2/mingw32/include/combaseapi.h"
	.file 33 "D:/Soft/msys2/mingw32/include/wtypes.h"
	.file 34 "libavformat/id3v2.h"
	.file 35 "D:/Soft/msys2/mingw32/include/string.h"
	.file 36 "libavformat/apetag.h"
	.file 37 "D:/Soft/msys2/mingw32/include/stdlib.h"
	.file 38 "<built-in>"